TN:
SF:/home/eyalsoha/private/pcb2gcode/autoleveller.cpp
FN:52,_Z13silent_formatRKNSt7__cxx1112basic_stringIcSt11char_traitsIcESaIcEEE
FN:59,_ZN12autolevellerC2ERKN5boost15program_options13variables_mapEP11uniqueCodesS6_ddN6Tiling8TileInfoE
FN:100,_ZN12autoleveller10getVarNameB5cxx11Eii
FN:105,_Z15computeWorkareaRKSt6vectorISt4pairIdS_ISt10shared_ptrIS_IS0_IddESaIS2_EEESaIS5_EEESaIS8_EE
FN:118,_ZN12autoleveller15prepareWorkareaERKSt6vectorISt4pairIdS0_ISt10shared_ptrIS0_IS1_IddESaIS3_EEESaIS6_EEESaIS9_EE
FN:154,_ZN12autoleveller6headerERSt14basic_ofstreamIcSt11char_traitsIcEE
FN:243,_ZN12autoleveller10footerNoIfERSt14basic_ofstreamIcSt11char_traitsIcEE
FN:306,_ZN12autoleveller16interpolatePointB5cxx11ESt4pairIddE
FN:330,_ZplRKSt4pairIddES2_
FN:334,_ZmiRKSt4pairIddES2_
FN:338,_ZmlRKSt4pairIddES2_
FN:342,_ZdvRKSt4pairIddES2_
FN:346,_ZmlRKSt4pairIddERKd
FN:350,_ZL5floorRKSt4pairIddE
FN:354,_Z17partition_segmentRKSt4pairIddES2_S2_S2_
FN:385,_ZN12autoleveller13addChainPointB5cxx11ESt4pairIddE
FN:407,_ZN12autoleveller12g01CorrectedB5cxx11ESt4pairIddE
FNDA:0,_ZL5floorRKSt4pairIddE
FNDA:20,_ZN12autolevellerC2ERKN5boost15program_options13variables_mapEP11uniqueCodesS6_ddN6Tiling8TileInfoE
FNDA:20,_ZN12autoleveller10footerNoIfERSt14basic_ofstreamIcSt11char_traitsIcEE
FNDA:0,_ZmiRKSt4pairIddES2_
FNDA:0,_ZplRKSt4pairIddES2_
FNDA:25276,_ZN12autoleveller13addChainPointB5cxx11ESt4pairIddE
FNDA:20,_Z15computeWorkareaRKSt6vectorISt4pairIdS_ISt10shared_ptrIS_IS0_IddESaIS2_EEESaIS5_EEESaIS8_EE
FNDA:0,_ZmlRKSt4pairIddES2_
FNDA:17840,_ZN12autoleveller16interpolatePointB5cxx11ESt4pairIddE
FNDA:20,_ZN12autoleveller6headerERSt14basic_ofstreamIcSt11char_traitsIcEE
FNDA:0,_Z13silent_formatRKNSt7__cxx1112basic_stringIcSt11char_traitsIcESaIcEEE
FNDA:540,_ZN12autoleveller12g01CorrectedB5cxx11ESt4pairIddE
FNDA:25282,_Z17partition_segmentRKSt4pairIddES2_S2_S2_
FNDA:0,_ZdvRKSt4pairIddES2_
FNDA:72236,_ZN12autoleveller10getVarNameB5cxx11Eii
FNDA:0,_ZmlRKSt4pairIddERKd
FNDA:20,_ZN12autoleveller15prepareWorkareaERKSt6vectorISt4pairIdS0_ISt10shared_ptrIS0_IS1_IddESaIS3_EEESaIS6_EEESaIS9_EE
FNF:17
FNH:10
DA:52,0
DA:54,0
DA:55,9392
DA:56,9392
DA:59,20
DA:61,20
DA:62,60
DA:63,60
DA:64,60
DA:65,40
DA:66,60
DA:67,40
DA:68,60
DA:69,60
DA:70,80
DA:71,80
DA:72,80
DA:73,80
DA:74,60
DA:75,60
DA:76,60
DA:77,60
DA:80,20
DA:81,20
DA:82,20
DA:91,20
DA:92,20
DA:93,400
DA:95,20
DA:96,20
DA:97,20
DA:98,20
DA:100,72236
DA:102,72236
DA:105,20
DA:106,20
DA:108,84
DA:109,552
DA:110,720
DA:111,480
DA:115,20
DA:118,20
DA:119,20
DA:120,20
DA:121,20
DA:123,20
DA:124,40
DA:125,40
DA:126,40
DA:127,40
DA:129,40
DA:130,20
DA:131,40
DA:132,20
DA:134,20
DA:135,20
DA:137,20
DA:138,20
DA:140,20
DA:141,20
DA:143,20
DA:144,20
DA:145,20
DA:147,48
DA:148,0
DA:149,0
DA:152,20
DA:154,20
DA:156,20
DA:161,20
DA:163,20
DA:164,12
DA:166,20
DA:168,20
DA:169,20
DA:173,0
DA:174,0
DA:176,20
DA:177,20
DA:178,20
DA:179,20
DA:180,20
DA:181,12
DA:182,40
DA:183,20
DA:184,20
DA:185,20
DA:186,20
DA:187,20
DA:188,20
DA:189,20
DA:190,20
DA:191,20
DA:192,20
DA:193,20
DA:195,20
DA:197,12
DA:198,12
DA:199,12
DA:200,12
DA:201,24
DA:205,144
DA:206,136
DA:207,136
DA:208,136
DA:209,136
DA:211,72
DA:212,72
DA:213,72
DA:216,64
DA:217,64
DA:218,64
DA:220,136
DA:221,8
DA:223,1012
DA:224,876
DA:225,876
DA:226,876
DA:227,876
DA:232,20
DA:233,20
DA:234,20
DA:235,12
DA:236,20
DA:237,20
DA:238,20
DA:239,8
DA:240,20
DA:241,20
DA:243,20
DA:245,20
DA:246,20
DA:247,20
DA:248,20
DA:250,20
DA:252,12
DA:253,12
DA:255,12
DA:256,12
DA:260,0
DA:261,0
DA:263,12
DA:264,12
DA:265,12
DA:266,12
DA:267,12
DA:268,12
DA:269,12
DA:270,12
DA:271,12
DA:272,12
DA:273,12
DA:274,12
DA:275,12
DA:276,24
DA:277,24
DA:278,12
DA:279,12
DA:280,12
DA:281,12
DA:282,12
DA:283,12
DA:284,12
DA:285,12
DA:286,12
DA:287,12
DA:288,24
DA:289,12
DA:290,12
DA:291,12
DA:292,12
DA:293,12
DA:294,12
DA:295,12
DA:296,24
DA:297,12
DA:299,20
DA:303,35680
DA:306,17840
DA:308,17840
DA:309,17840
DA:310,17840
DA:311,17840
DA:313,17840
DA:314,17840
DA:316,17840
DA:317,17840
DA:319,17840
DA:320,17840
DA:322,17840
DA:323,53520
DA:324,53520
DA:325,53520
DA:326,53520
DA:327,35680
DA:330,0
DA:331,480258
DA:334,0
DA:335,533620
DA:338,0
DA:339,213448
DA:342,0
DA:343,266810
DA:346,0
DA:347,53362
DA:350,0
DA:351,53362
DA:354,25282
DA:356,25282
DA:357,1082
DA:359,24741
DA:360,24741
DA:361,51422
DA:362,80043
DA:363,26681
DA:365,80043
DA:366,26681
DA:367,160086
DA:368,426896
DA:369,320172
DA:370,106724
DA:372,962
DA:374,106724
DA:376,1016
DA:379,26681
DA:381,24741
DA:382,49482
DA:385,25276
DA:387,25276
DA:388,25276
DA:389,25276
DA:391,75828
DA:393,25276
DA:394,61936
DA:395,18304
DA:397,119064
DA:398,17480
DA:399,34960
DA:403,25276
DA:404,50552
DA:407,540
DA:409,540
DA:410,180
DA:412,360
LF:244
LH:230
end_of_record
TN:
SF:/home/eyalsoha/private/pcb2gcode/autoleveller.hpp
FN:79,_ZN12autoleveller14maxProbePointsEv
FN:85,_ZN12autoleveller19requiredProbePointsEv
FNDA:0,_ZN12autoleveller19requiredProbePointsEv
FNDA:0,_ZN12autoleveller14maxProbePointsEv
FNF:2
FNH:0
DA:75,1080
DA:79,0
DA:81,20
DA:85,0
DA:87,20
DA:94,20
DA:95,8
LF:7
LH:5
end_of_record
TN:
SF:/home/eyalsoha/private/pcb2gcode/available_drills.hpp
FN:15,_ZNK14AvailableDrilleqERKS_
FN:23,_ZNK14AvailableDrill5writeERSo
FN:32,_ZN14AvailableDrill4readERKNSt7__cxx1112basic_stringIcSt11char_traitsIcESaIcEEE
FN:60,_ZNK14AvailableDrill10differenceE4UnitIN5boost5units4unitINS2_4listINS2_3dimINS2_21length_base_dimensionENS2_15static_rationalILl1ELl1EEEEENS2_18dimensionless_typeEEENS2_18homogeneous_systemINS4_INS2_2si15meter_base_unitENS4_INS2_16scaled_base_unitINS2_3cgs14gram_base_unitENS2_5scaleILl10ENS7_ILl3ELl1EEEEEEENS4_INSD_16second_base_unitENS4_INSD_16ampere_base_unitENS4_INSD_16kelvin_base_unitENS4_INSD_14mole_base_unitENS4_INSD_17candela_base_unitENS4_INS2_5angle16radian_base_unitENS4_INSR_19steradian_base_unitESA_EEEEEEEEEEEEEEEEEEEEvEEEd
FN:79,_ZrsRSiR14AvailableDrill
FNDA:9,_ZNK14AvailableDrill5writeERSo
FNDA:11,_ZrsRSiR14AvailableDrill
FNDA:4,_ZNK14AvailableDrilleqERKS_
FNDA:11,_ZN14AvailableDrill4readERKNSt7__cxx1112basic_stringIcSt11char_traitsIcESaIcEEE
FNDA:408,_ZNK14AvailableDrill10differenceE4UnitIN5boost5units4unitINS2_4listINS2_3dimINS2_21length_base_dimensionENS2_15static_rationalILl1ELl1EEEEENS2_18dimensionless_typeEEENS2_18homogeneous_systemINS4_INS2_2si15meter_base_unitENS4_INS2_16scaled_base_unitINS2_3cgs14gram_base_unitENS2_5scaleILl10ENS7_ILl3ELl1EEEEEEENS4_INSD_16second_base_unitENS4_INSD_16ampere_base_unitENS4_INSD_16kelvin_base_unitENS4_INSD_14mole_base_unitENS4_INSD_17candela_base_unitENS4_INS2_5angle16radian_base_unitENS4_INSR_19steradian_base_unitESA_EEEEEEEEEEEEEEEEEEEEvEEEd
FNF:5
FNH:5
DA:8,746
DA:12,8
DA:13,67
DA:15,4
DA:16,8
DA:17,8
DA:18,4
DA:21,96
DA:23,9
DA:24,9
DA:25,35
DA:26,33
DA:29,1
DA:30,1
DA:32,11
DA:33,18
DA:34,15
DA:35,22
DA:36,2
DA:37,8
DA:39,4
DA:40,16
DA:42,10
DA:43,18
DA:44,8
DA:45,1
DA:46,2
DA:48,16
DA:49,8
DA:51,21
DA:52,4
DA:54,24
DA:55,1
DA:56,3
DA:58,7
DA:60,408
DA:61,1632
DA:62,1584
DA:63,1880
DA:65,64
DA:79,11
DA:80,37
DA:81,11
DA:82,11
DA:83,4
DA:84,2
DA:85,2
DA:87,8
DA:91,9
LF:49
LH:49
end_of_record
TN:
SF:/home/eyalsoha/private/pcb2gcode/bg_helpers.hpp
FN:7,_ZmiIN5boost8geometry5model7polygonINS2_2d28point_xyIdNS1_2cs9cartesianEEELb1ELb1ESt6vectorS9_SaSaEENS2_4ringIS8_Lb1ELb1ES9_SaEEENS2_13multi_polygonIT_S9_SaEERKSF_RKT0_
FN:7,_ZmiIN5boost8geometry5model7polygonINS2_2d28point_xyIdNS1_2cs9cartesianEEELb1ELb1ESt6vectorS9_SaSaEENS2_13multi_polygonISA_S9_SaEEENSB_IT_S9_SaEERKSE_RKT0_
FN:30,_ZmiIN5boost8geometry5model13multi_polygonINS2_7polygonINS2_2d28point_xyIdNS1_2cs9cartesianEEELb1ELb1ESt6vectorSA_SaSaEESA_SaEEESC_RKNS2_3boxIS9_EERKT_
FN:37,_ZmiIN5boost8geometry5model10linestringINS2_2d28point_xyIdNS1_2cs9cartesianEEESt6vectorSaEENS2_13multi_polygonINS2_7polygonIS8_Lb1ELb1ES9_S9_SaSaEES9_SaEEENS2_16multi_linestringIT_S9_SaEERKSH_RKT0_
FN:48,_ZanIN5boost8geometry5model10linestringINS2_2d28point_xyIdNS1_2cs9cartesianEEESt6vectorSaEENS2_13multi_polygonINS2_7polygonIS8_Lb1ELb1ES9_S9_SaSaEES9_SaEEENS2_16multi_linestringIT_S9_SaEERKSH_RKT0_
FN:62,_ZanIN5boost8geometry5model3boxINS2_2d28point_xyIdNS1_2cs9cartesianEEEEEENS2_16multi_linestringINS2_10linestringIS8_St6vectorSaEESC_SaEERKSD_RKT_
FN:76,_ZeoIN5boost8geometry5model7polygonINS2_2d28point_xyIdNS1_2cs9cartesianEEELb1ELb1ESt6vectorS9_SaSaEENS2_13multi_polygonISA_S9_SaEEENSB_IT_S9_SaEERKSE_RKT0_
FN:90,_ZanIN5boost8geometry5model7polygonINS2_2d28point_xyIdNS1_2cs9cartesianEEELb1ELb1ESt6vectorS9_SaSaEENS2_3boxIS8_EEENS2_13multi_polygonIT_S9_SaEERKSF_RKT0_
FN:90,_ZanIN5boost8geometry5model7polygonINS2_2d28point_xyIdNS1_2cs9cartesianEEELb1ELb1ESt6vectorS9_SaSaEENS2_13multi_polygonISA_S9_SaEEENSB_IT_S9_SaEERKSE_RKT0_
FN:90,_ZanIN5boost8geometry5model7polygonINS2_2d28point_xyIdNS1_2cs9cartesianEEELb1ELb1ESt6vectorS9_SaSaEESA_ENS2_13multi_polygonIT_S9_SaEERKSD_RKT0_
FN:104,_ZanIN5boost8geometry5model2d28point_xyIdNS1_2cs9cartesianEEENS2_13multi_polygonINS2_7polygonIS7_Lb1ELb1ESt6vectorSA_SaSaEESA_SaEEESC_RKNS9_IT_Lb1ELb1ESA_SA_SaSaEERKT0_
FN:128,_ZN10bg_helpersL6bufferIdEEvRKN5boost8geometry5model13multi_polygonINS3_7polygonINS3_2d28point_xyIdNS2_2cs9cartesianEEELb1ELb1ESt6vectorSB_SaSaEESB_SaEERSD_T_
FN:141,_ZN10bg_helpersL6bufferERKN5boost8geometry5model13multi_polygonINS2_7polygonINS2_2d28point_xyIdNS1_2cs9cartesianEEELb1ELb1ESt6vectorSA_SaSaEESA_SaEEd
FN:157,_ZN10bg_helpersL6bufferIdEEvRKN5boost8geometry5model7polygonINS3_2d28point_xyIdNS2_2cs9cartesianEEELb1ELb1ESt6vectorSA_SaSaEERNS3_13multi_polygonISB_SA_SaEET_
FN:171,_ZN10bg_helpersL6bufferIdEEvRKN5boost8geometry5model10linestringINS3_2d28point_xyIdNS2_2cs9cartesianEEESt6vectorSaEERNS3_13multi_polygonINS3_7polygonIS9_Lb1ELb1ESA_SA_SaSaEESA_SaEET_
FN:185,_ZN10bg_helpersL6bufferIdEEN5boost8geometry5model13multi_polygonINS3_7polygonINS3_2d28point_xyIdNS2_2cs9cartesianEEELb1ELb1ESt6vectorSB_SaSaEESB_SaEERKSC_T_
FN:192,_ZN10bg_helpersL6bufferIdEEvRKN5boost8geometry5model16multi_linestringINS3_10linestringINS3_2d28point_xyIdNS2_2cs9cartesianEEESt6vectorSaEESB_SaEERNS3_13multi_polygonINS3_7polygonISA_Lb1ELb1ESB_SB_SaSaEESB_SaEET_
FN:212,_ZN10bg_helpersL6bufferIdEEN5boost8geometry5model13multi_polygonINS3_7polygonINS3_2d28point_xyIdNS2_2cs9cartesianEEELb1ELb1ESt6vectorSB_SaSaEESB_SaEERKNS3_16multi_linestringINS3_10linestringISA_SB_SaEESB_SaEET_
FN:219,_ZN10bg_helpersL6bufferIdEEvRKN5boost8geometry5model4ringINS3_2d28point_xyIdNS2_2cs9cartesianEEELb1ELb1ESt6vectorSaEERNS3_13multi_polygonINS3_7polygonIS9_Lb1ELb1ESA_SA_SaSaEESA_SaEET_
FN:237,_ZplIN5boost8geometry5model7polygonINS2_2d28point_xyIdNS1_2cs9cartesianEEELb1ELb1ESt6vectorS9_SaSaEENS2_4ringIS8_Lb1ELb1ES9_SaEEENS2_13multi_polygonIT_S9_SaEERKSF_RKT0_
FN:237,_ZplIN5boost8geometry5model7polygonINS2_2d28point_xyIdNS1_2cs9cartesianEEELb1ELb1ESt6vectorS9_SaSaEENS2_13multi_polygonISA_S9_SaEEENSB_IT_S9_SaEERKSE_RKT0_
FNDA:2898,_ZanIN5boost8geometry5model7polygonINS2_2d28point_xyIdNS1_2cs9cartesianEEELb1ELb1ESt6vectorS9_SaSaEENS2_3boxIS8_EEENS2_13multi_polygonIT_S9_SaEERKSF_RKT0_
FNDA:667,_ZplIN5boost8geometry5model7polygonINS2_2d28point_xyIdNS1_2cs9cartesianEEELb1ELb1ESt6vectorS9_SaSaEENS2_4ringIS8_Lb1ELb1ES9_SaEEENS2_13multi_polygonIT_S9_SaEERKSF_RKT0_
FNDA:528,_ZN10bg_helpersL6bufferIdEEvRKN5boost8geometry5model16multi_linestringINS3_10linestringINS3_2d28point_xyIdNS2_2cs9cartesianEEESt6vectorSaEESB_SaEERNS3_13multi_polygonINS3_7polygonISA_Lb1ELb1ESB_SB_SaSaEESB_SaEET_
FNDA:6795,_ZmiIN5boost8geometry5model10linestringINS2_2d28point_xyIdNS1_2cs9cartesianEEESt6vectorSaEENS2_13multi_polygonINS2_7polygonIS8_Lb1ELb1ES9_S9_SaSaEES9_SaEEENS2_16multi_linestringIT_S9_SaEERKSH_RKT0_
FNDA:2,_ZmiIN5boost8geometry5model7polygonINS2_2d28point_xyIdNS1_2cs9cartesianEEELb1ELb1ESt6vectorS9_SaSaEENS2_4ringIS8_Lb1ELb1ES9_SaEEENS2_13multi_polygonIT_S9_SaEERKSF_RKT0_
FNDA:912,_ZN10bg_helpersL6bufferIdEEvRKN5boost8geometry5model4ringINS3_2d28point_xyIdNS2_2cs9cartesianEEELb1ELb1ESt6vectorSaEERNS3_13multi_polygonINS3_7polygonIS9_Lb1ELb1ESA_SA_SaSaEESA_SaEET_
FNDA:356,_ZN10bg_helpersL6bufferIdEEN5boost8geometry5model13multi_polygonINS3_7polygonINS3_2d28point_xyIdNS2_2cs9cartesianEEELb1ELb1ESt6vectorSB_SaSaEESB_SaEERKNS3_16multi_linestringINS3_10linestringISA_SB_SaEESB_SaEET_
FNDA:3387,_ZN10bg_helpersL6bufferERKN5boost8geometry5model13multi_polygonINS2_7polygonINS2_2d28point_xyIdNS1_2cs9cartesianEEELb1ELb1ESt6vectorSA_SaSaEESA_SaEEd
FNDA:7468,_ZN10bg_helpersL6bufferIdEEvRKN5boost8geometry5model13multi_polygonINS3_7polygonINS3_2d28point_xyIdNS2_2cs9cartesianEEELb1ELb1ESt6vectorSB_SaSaEESB_SaEERSD_T_
FNDA:2921,_ZmiIN5boost8geometry5model7polygonINS2_2d28point_xyIdNS1_2cs9cartesianEEELb1ELb1ESt6vectorS9_SaSaEENS2_13multi_polygonISA_S9_SaEEENSB_IT_S9_SaEERKSE_RKT0_
FNDA:21797,_ZplIN5boost8geometry5model7polygonINS2_2d28point_xyIdNS1_2cs9cartesianEEELb1ELb1ESt6vectorS9_SaSaEENS2_13multi_polygonISA_S9_SaEEENSB_IT_S9_SaEERKSE_RKT0_
FNDA:2606,_ZN10bg_helpersL6bufferIdEEN5boost8geometry5model13multi_polygonINS3_7polygonINS3_2d28point_xyIdNS2_2cs9cartesianEEELb1ELb1ESt6vectorSB_SaSaEESB_SaEERKSC_T_
FNDA:544,_ZanIN5boost8geometry5model3boxINS2_2d28point_xyIdNS1_2cs9cartesianEEEEEENS2_16multi_linestringINS2_10linestringIS8_St6vectorSaEESC_SaEERKSD_RKT_
FNDA:3237,_ZN10bg_helpersL6bufferIdEEvRKN5boost8geometry5model10linestringINS3_2d28point_xyIdNS2_2cs9cartesianEEESt6vectorSaEERNS3_13multi_polygonINS3_7polygonIS9_Lb1ELb1ESA_SA_SaSaEESA_SaEET_
FNDA:3952,_ZanIN5boost8geometry5model7polygonINS2_2d28point_xyIdNS1_2cs9cartesianEEELb1ELb1ESt6vectorS9_SaSaEENS2_13multi_polygonISA_S9_SaEEENSB_IT_S9_SaEERKSE_RKT0_
FNDA:8890,_ZanIN5boost8geometry5model2d28point_xyIdNS1_2cs9cartesianEEENS2_13multi_polygonINS2_7polygonIS7_Lb1ELb1ESt6vectorSA_SaSaEESA_SaEEESC_RKNS9_IT_Lb1ELb1ESA_SA_SaSaEERKT0_
FNDA:6050,_ZanIN5boost8geometry5model7polygonINS2_2d28point_xyIdNS1_2cs9cartesianEEELb1ELb1ESt6vectorS9_SaSaEESA_ENS2_13multi_polygonIT_S9_SaEERKSD_RKT0_
FNDA:14060,_ZeoIN5boost8geometry5model7polygonINS2_2d28point_xyIdNS1_2cs9cartesianEEELb1ELb1ESt6vectorS9_SaSaEENS2_13multi_polygonISA_S9_SaEEENSB_IT_S9_SaEERKSE_RKT0_
FNDA:16,_ZmiIN5boost8geometry5model13multi_polygonINS2_7polygonINS2_2d28point_xyIdNS1_2cs9cartesianEEELb1ELb1ESt6vectorSA_SaSaEESA_SaEEESC_RKNS2_3boxIS9_EERKT_
FNDA:2294,_ZanIN5boost8geometry5model10linestringINS2_2d28point_xyIdNS1_2cs9cartesianEEESt6vectorSaEENS2_13multi_polygonINS2_7polygonIS8_Lb1ELb1ES9_S9_SaSaEES9_SaEEENS2_16multi_linestringIT_S9_SaEERKSH_RKT0_
FNDA:7678,_ZN10bg_helpersL6bufferIdEEvRKN5boost8geometry5model7polygonINS3_2d28point_xyIdNS2_2cs9cartesianEEELb1ELb1ESt6vectorSA_SaSaEERNS3_13multi_polygonISB_SA_SaEET_
FNF:21
FNH:21
DA:7,2923
DA:9,5844
DA:10,153
DA:12,2770
DA:13,2770
DA:14,5540
DA:30,16
DA:31,32
DA:32,16
DA:33,32
DA:37,6795
DA:39,13590
DA:40,5083
DA:42,1712
DA:43,1712
DA:44,3424
DA:48,2294
DA:50,2294
DA:51,4588
DA:54,4496
DA:57,2192
DA:62,544
DA:64,544
DA:65,1088
DA:68,544
DA:71,544
DA:76,14060
DA:78,28120
DA:79,13702
DA:81,716
DA:82,302
DA:84,56
DA:85,56
DA:86,112
DA:90,12900
DA:92,12900
DA:93,19750
DA:96,25800
DA:99,12776
DA:104,8890
DA:106,8890
DA:107,17780
DA:110,8890
DA:113,8890
DA:128,7468
DA:129,7468
DA:130,604
DA:132,34320
DA:139,7468
DA:141,3387
DA:142,3387
DA:143,0
DA:145,6774
DA:146,6774
DA:147,3387
DA:148,3387
DA:149,3387
DA:150,3387
DA:151,6774
DA:152,6774
DA:157,7678
DA:158,7678
DA:159,2648
DA:161,25150
DA:168,7678
DA:171,3237
DA:172,3237
DA:173,0
DA:175,16185
DA:182,3237
DA:185,2606
DA:186,2606
DA:187,2606
DA:188,2606
DA:192,528
DA:193,528
DA:194,0
DA:195,0
DA:199,1056
DA:200,528
DA:204,8058
DA:205,6474
DA:206,3237
DA:207,3237
DA:212,356
DA:213,356
DA:214,356
DA:215,356
DA:219,912
DA:220,912
DA:221,0
DA:223,912
DA:224,912
DA:225,1824
DA:226,4560
DA:233,912
DA:237,22464
DA:239,44261
DA:240,2961
DA:242,39006
DA:243,7760
DA:244,3880
DA:245,7760
DA:250,15623
DA:251,15623
DA:252,31246
DA:253,46869
DA:254,62492
DA:255,46869
DA:256,0
DA:257,0
DA:258,0
DA:260,15623
DA:261,15623
DA:262,31246
LF:115
LH:107
end_of_record
TN:
SF:/home/eyalsoha/private/pcb2gcode/board.cpp
FN:44,_ZN5BoardC2EbNSt7__cxx1112basic_stringIcSt11char_traitsIcESaIcEEEbN17MillFeedDirection17MillFeedDirectionEbb
FN:55,_ZN5Board9get_widthEv
FN:62,_ZN5Board10get_heightEv
FN:69,_ZN5Board12prepareLayerENSt7__cxx1112basic_stringIcSt11char_traitsIcESaIcEEESt10shared_ptrI14GerberImporterES6_I11RoutingMillEb
FN:78,_ZN5Board12createLayersEv
FN:170,_ZN5Board12get_toolpathENSt7__cxx1112basic_stringIcSt11char_traitsIcESaIcEEE
FN:178,_ZN5Board11list_layersB5cxx11Ev
FN:194,_ZN5Board9get_layerENSt7__cxx1112basic_stringIcSt11char_traitsIcESaIcEEE
FNDA:333,_ZN5Board12prepareLayerENSt7__cxx1112basic_stringIcSt11char_traitsIcESaIcEEESt10shared_ptrI14GerberImporterES6_I11RoutingMillEb
FNDA:313,_ZN5Board9get_layerENSt7__cxx1112basic_stringIcSt11char_traitsIcESaIcEEE
FNDA:213,_ZN5Board11list_layersB5cxx11Ev
FNDA:526,_ZN5Board9get_widthEv
FNDA:233,_ZN5BoardC2EbNSt7__cxx1112basic_stringIcSt11char_traitsIcESaIcEEEbN17MillFeedDirection17MillFeedDirectionEbb
FNDA:526,_ZN5Board10get_heightEv
FNDA:0,_ZN5Board12get_toolpathENSt7__cxx1112basic_stringIcSt11char_traitsIcESaIcEEE
FNDA:221,_ZN5Board12createLayersEv
FNF:8
FNH:7
DA:44,233
DA:46,233
DA:53,233
DA:55,526
DA:56,1052
DA:59,2988
DA:62,526
DA:63,1052
DA:66,2988
DA:69,333
DA:71,666
DA:72,333
DA:78,221
DA:80,442
DA:85,193
DA:86,193
DA:87,193
DA:88,193
DA:91,386
DA:92,386
DA:93,560
DA:94,280
DA:95,140
DA:96,280
DA:97,280
DA:98,280
DA:99,420
DA:101,318
DA:102,106
DA:103,212
DA:104,285
DA:105,114
DA:106,358
DA:109,65
DA:110,65
DA:111,57
DA:112,57
DA:113,57
DA:114,171
DA:115,171
DA:117,57
DA:119,130
DA:120,130
DA:121,130
DA:122,183
DA:129,908
DA:131,987
DA:132,329
DA:134,329
DA:138,987
DA:139,658
DA:140,658
DA:141,329
DA:142,280
DA:144,658
DA:145,658
DA:147,658
DA:148,987
DA:149,987
DA:153,908
DA:154,1456
DA:158,579
DA:159,560
DA:161,692
DA:162,544
DA:163,264
DA:164,528
DA:170,0
DA:171,0
DA:178,213
DA:180,213
DA:182,952
DA:184,313
DA:187,213
DA:194,313
DA:196,313
LF:76
LH:74
end_of_record
TN:
SF:/home/eyalsoha/private/pcb2gcode/board.hpp
FN:62,_ZN5Board9get_min_xEv
FN:64,_ZN5Board9get_min_yEv
FNDA:0,_ZN5Board9get_min_yEv
FNDA:0,_ZN5Board9get_min_xEv
FNF:2
FNH:0
DA:62,36
DA:64,36
LF:2
LH:2
end_of_record
TN:
SF:/home/eyalsoha/private/pcb2gcode/common.cpp
FN:33,_Z8workSideRKN5boost15program_options13variables_mapENSt7__cxx1112basic_stringIcSt11char_traitsIcESaIcEEE
FN:59,_Z14build_filenameRKNSt7__cxx1112basic_stringIcSt11char_traitsIcESaIcEEES6_
FNDA:612,_Z8workSideRKN5boost15program_options13variables_mapENSt7__cxx1112basic_stringIcSt11char_traitsIcESaIcEEE
FNDA:1742,_Z14build_filenameRKNSt7__cxx1112basic_stringIcSt11char_traitsIcESaIcEEES6_
FNF:2
FNH:2
DA:33,612
DA:35,1224
DA:36,1224
DA:38,612
DA:39,0
DA:42,612
DA:45,20
DA:46,20
DA:47,592
DA:48,592
DA:49,3192
DA:52,328
DA:59,1742
DA:65,1742
DA:68,1742
DA:69,4
DA:71,1738
DA:72,6
DA:73,2
DA:75,1
DA:78,3470
DA:79,1729
DA:81,6
LF:23
LH:22
end_of_record
TN:
SF:/home/eyalsoha/private/pcb2gcode/drill.cpp
FN:77,_ZN17ExcellonProcessorC2ERKN5boost15program_options13variables_mapESt4pairIddES6_
FN:129,_ZN17ExcellonProcessorD2Ev
FN:138,_ZN17ExcellonProcessor10add_headerENSt7__cxx1112basic_stringIcSt11char_traitsIcESaIcEEE
FN:151,_ZN17ExcellonProcessor10get_xvalueEd
FN:167,_ZN17ExcellonProcessor15drill_to_stringB5cxx11E8drillbit
FN:180,_ZN17ExcellonProcessor13line_to_holesERKSt4pairIS0_IddES1_Ed
FN:240,_ZN17ExcellonProcessor10export_ngcENSt7__cxx1112basic_stringIcSt11char_traitsIcESaIcEEERKN5boost8optionalIS5_EESt10shared_ptrI7DrillerEbbb
FN:371,_ZN17ExcellonProcessor8millholeERSt14basic_ofstreamIcSt11char_traitsIcEEddddSt10shared_ptrI6CutterEd
FN:548,_ZN17ExcellonProcessor10export_ngcENSt7__cxx1112basic_stringIcSt11char_traitsIcESaIcEEERKN5boost8optionalIS5_EESt10shared_ptrI6CutterEb
FN:656,_ZN17ExcellonProcessor8save_svgERKSt3mapIi8drillbitSt4lessIiESaISt4pairIKiS1_EEERKS0_IiSt6vectorIS4_IS4_IddESC_ESaISD_EES3_SaIS4_IS5_SF_EEERKNSt7__cxx1112basic_stringIcSt11char_traitsIcESaIcEEESS_
FN:688,_ZN17ExcellonProcessor13parse_projectERKNSt7__cxx1112basic_stringIcSt11char_traitsIcESaIcEEE
FN:703,_ZN17ExcellonProcessor10parse_bitsEv
FN:721,_ZN17ExcellonProcessor11parse_holesEv
FN:750,_ZN17ExcellonProcessor14optimize_holesERSt3mapIi8drillbitSt4lessIiESaISt4pairIKiS1_EEEbRKN5boost8optionalI4UnitINSA_5units4unitINSD_4listINSD_3dimINSD_21length_base_dimensionENSD_15static_rationalILl1ELl1EEEEENSD_18dimensionless_typeEEENSD_18homogeneous_systemINSF_INSD_2si15meter_base_unitENSF_INSD_16scaled_base_unitINSD_3cgs14gram_base_unitENSD_5scaleILl10ENSI_ILl3ELl1EEEEEEENSF_INSO_16second_base_unitENSF_INSO_16ampere_base_unitENSF_INSO_16kelvin_base_unitENSF_INSO_14mole_base_unitENSF_INSO_17candela_base_unitENSF_INSD_5angle16radian_base_unitENSF_INS12_19steradian_base_unitESL_EEEEEEEEEEEEEEEEEEEEvEEEEES1J_
FN:821,_ZN17ExcellonProcessor13optimize_bitsEv
FN:832,_ZZN17ExcellonProcessor13optimize_bitsEvENKUl14AvailableDrillS0_E_clES0_S0_
FN:832,_ZZN17ExcellonProcessor13optimize_bitsEvENKUl14AvailableDrillS0_E_clES0_S0_.isra.293
FN:852,_ZN17ExcellonProcessor12set_preambleENSt7__cxx1112basic_stringIcSt11char_traitsIcESaIcEEE
FN:861,_ZN17ExcellonProcessor13set_postambleENSt7__cxx1112basic_stringIcSt11char_traitsIcESaIcEEE
FNDA:104,_ZN17ExcellonProcessor10add_headerENSt7__cxx1112basic_stringIcSt11char_traitsIcESaIcEEE
FNDA:208,_ZN17ExcellonProcessor8save_svgERKSt3mapIi8drillbitSt4lessIiESaISt4pairIKiS1_EEERKS0_IiSt6vectorIS4_IS4_IddESC_ESaISD_EES3_SaIS4_IS5_SF_EEERKNSt7__cxx1112basic_stringIcSt11char_traitsIcESaIcEEESS_
FNDA:8704,_ZN17ExcellonProcessor10get_xvalueEd
FNDA:0,_ZZN17ExcellonProcessor13optimize_bitsEvENKUl14AvailableDrillS0_E_clES0_S0_
FNDA:3580,_ZN17ExcellonProcessor8millholeERSt14basic_ofstreamIcSt11char_traitsIcEEddddSt10shared_ptrI6CutterEd
FNDA:104,_ZN17ExcellonProcessor10parse_bitsEv
FNDA:880,_ZN17ExcellonProcessor15drill_to_stringB5cxx11E8drillbit
FNDA:176,_ZZN17ExcellonProcessor13optimize_bitsEvENKUl14AvailableDrillS0_E_clES0_S0_.isra.293
FNDA:4,_ZN17ExcellonProcessor12set_preambleENSt7__cxx1112basic_stringIcSt11char_traitsIcESaIcEEE
FNDA:108,_ZN17ExcellonProcessor13parse_projectERKNSt7__cxx1112basic_stringIcSt11char_traitsIcESaIcEEE
FNDA:4,_ZN17ExcellonProcessor13set_postambleENSt7__cxx1112basic_stringIcSt11char_traitsIcESaIcEEE
FNDA:104,_ZN17ExcellonProcessor13optimize_bitsEv
FNDA:208,_ZN17ExcellonProcessor14optimize_holesERSt3mapIi8drillbitSt4lessIiESaISt4pairIKiS1_EEEbRKN5boost8optionalI4UnitINSA_5units4unitINSD_4listINSD_3dimINSD_21length_base_dimensionENSD_15static_rationalILl1ELl1EEEEENSD_18dimensionless_typeEEENSD_18homogeneous_systemINSF_INSD_2si15meter_base_unitENSF_INSD_16scaled_base_unitINSD_3cgs14gram_base_unitENSD_5scaleILl10ENSI_ILl3ELl1EEEEEEENSF_INSO_16second_base_unitENSF_INSO_16ampere_base_unitENSF_INSO_16kelvin_base_unitENSF_INSO_14mole_base_unitENSF_INSO_17candela_base_unitENSF_INSD_5angle16radian_base_unitENSF_INS12_19steradian_base_unitESL_EEEEEEEEEEEEEEEEEEEEvEEEEES1J_
FNDA:104,_ZN17ExcellonProcessor11parse_holesEv
FNDA:104,_ZN17ExcellonProcessorD2Ev
FNDA:104,_ZN17ExcellonProcessor10export_ngcENSt7__cxx1112basic_stringIcSt11char_traitsIcESaIcEEERKN5boost8optionalIS5_EESt10shared_ptrI6CutterEb
FNDA:3000,_ZN17ExcellonProcessor13line_to_holesERKSt4pairIS0_IddES1_Ed
FNDA:108,_ZN17ExcellonProcessorC2ERKN5boost15program_options13variables_mapESt4pairIddES6_
FNDA:104,_ZN17ExcellonProcessor10export_ngcENSt7__cxx1112basic_stringIcSt11char_traitsIcESaIcEEERKN5boost8optionalIS5_EESt10shared_ptrI7DrillerEbbb
FNF:19
FNH:18
DA:77,108
DA:79,108
DA:80,216
DA:81,108
DA:82,108
DA:83,212
DA:84,312
DA:87,208
DA:88,312
DA:89,312
DA:90,312
DA:91,416
DA:92,312
DA:93,416
DA:94,208
DA:95,208
DA:96,312
DA:97,416
DA:100,1904
DA:102,104
DA:105,104
DA:107,24
DA:108,8
DA:112,288
DA:113,96
DA:116,208
DA:117,104
DA:119,104
DA:121,208
DA:122,104
DA:129,344
DA:131,104
DA:132,104
DA:138,104
DA:140,104
DA:141,104
DA:151,8704
DA:153,8704
DA:155,8704
DA:161,11104
DA:164,8704
DA:167,880
DA:168,880
DA:169,880
DA:170,576
DA:171,304
DA:172,164
DA:174,880
DA:175,880
DA:176,880
DA:177,880
DA:180,3000
DA:181,3000
DA:182,3000
DA:183,3000
DA:184,3000
DA:185,6000
DA:186,3000
DA:190,3000
DA:191,3000
DA:194,3000
DA:198,3000
DA:200,3000
DA:201,3000
DA:203,1044
DA:206,9000
DA:207,3000
DA:208,23460
DA:209,46920
DA:211,20460
DA:212,20460
DA:213,20460
DA:214,20460
DA:218,7056
DA:220,7056
DA:221,7056
DA:222,7056
DA:223,14112
DA:224,14112
DA:225,14112
DA:227,6000
DA:240,104
DA:243,104
DA:245,104
DA:247,312
DA:249,616
DA:250,208
DA:251,208
DA:252,624
DA:256,208
DA:257,312
DA:260,208
DA:261,208
DA:262,60
DA:264,84
DA:267,416
DA:269,104
DA:272,104
DA:274,104
DA:276,16
DA:277,16
DA:278,92
DA:279,44
DA:280,44
DA:282,16
DA:286,88
DA:289,104
DA:290,104
DA:292,104
DA:293,104
DA:294,104
DA:298,364
DA:299,52
DA:300,52
DA:301,4
DA:303,52
DA:304,52
DA:305,52
DA:307,104
DA:311,104
DA:312,52
DA:314,52
DA:315,4
DA:318,48
DA:319,96
DA:322,52
DA:323,104
DA:325,52
DA:327,104
DA:329,52
DA:331,1076
DA:332,2220
DA:333,1300
DA:334,1300
DA:336,1300
DA:338,484
DA:339,484
DA:340,484
DA:341,484
DA:342,484
DA:346,816
DA:347,816
DA:348,816
DA:349,816
DA:355,52
DA:359,208
DA:361,104
DA:363,312
DA:364,104
DA:371,3580
DA:377,3580
DA:378,3580
DA:379,7160
DA:380,3580
DA:385,10740
DA:387,3580
DA:388,3580
DA:389,3580
DA:390,3580
DA:392,1496
DA:393,1496
DA:395,20
DA:396,20
DA:399,20
DA:400,20
DA:403,20
DA:404,20
DA:406,1016
DA:407,528
DA:408,528
DA:409,528
DA:411,508
DA:413,528
DA:415,528
DA:418,508
DA:419,508
DA:420,508
DA:421,508
DA:422,508
DA:424,1476
DA:425,1476
DA:427,1496
DA:429,1496
DA:432,2084
DA:433,2084
DA:434,2084
DA:435,2084
DA:436,412
DA:437,412
DA:446,2084
DA:448,56
DA:449,56
DA:452,2084
DA:453,2084
DA:455,2084
DA:456,2084
DA:458,2084
DA:459,2084
DA:461,2084
DA:462,2084
DA:464,2084
DA:467,2084
DA:468,2084
DA:469,2084
DA:471,2084
DA:472,2084
DA:474,412
DA:475,412
DA:476,412
DA:478,412
DA:479,412
DA:480,412
DA:484,2084
DA:485,2084
DA:488,2084
DA:489,2084
DA:492,8280
DA:493,24928
DA:495,41520
DA:496,22844
DA:498,18164
DA:499,18164
DA:500,18164
DA:501,18164
DA:503,16492
DA:505,18164
DA:506,18164
DA:509,4680
DA:510,4680
DA:511,4680
DA:512,4268
DA:514,4680
DA:515,4680
DA:517,4680
DA:518,4680
DA:519,4680
DA:520,4268
DA:522,4680
DA:524,4680
DA:525,4680
DA:526,4680
DA:527,4268
DA:529,4680
DA:530,4680
DA:532,4680
DA:533,4680
DA:534,4680
DA:535,4268
DA:537,4680
DA:541,2084
DA:543,2084
DA:548,104
DA:550,104
DA:551,104
DA:553,104
DA:555,312
DA:556,616
DA:557,208
DA:558,208
DA:559,624
DA:563,208
DA:564,312
DA:567,208
DA:568,208
DA:569,252
DA:571,20
DA:575,416
DA:577,104
DA:580,104
DA:581,4
DA:583,100
DA:585,104
DA:586,104
DA:588,104
DA:589,200
DA:590,104
DA:592,104
DA:593,504
DA:594,192
DA:595,192
DA:597,104
DA:600,104
DA:601,104
DA:603,104
DA:604,104
DA:606,208
DA:608,228
DA:610,124
DA:612,288
DA:614,164
DA:616,164
DA:617,72
DA:619,804
DA:620,312
DA:621,312
DA:622,4516
DA:623,3580
DA:624,3580
DA:625,3580
DA:626,3580
DA:627,10740
DA:628,7160
DA:629,3580
DA:631,1496
DA:638,208
DA:640,104
DA:642,104
DA:644,84
DA:645,84
DA:646,164
DA:649,312
DA:650,104
DA:656,208
DA:659,416
DA:660,96
DA:662,448
DA:663,448
DA:664,448
DA:665,448
DA:668,112
DA:669,224
DA:671,224
DA:672,224
DA:674,112
DA:676,580
DA:677,244
DA:678,244
DA:680,5812
DA:681,16592
DA:682,17268
DA:688,108
DA:689,108
DA:690,108
DA:691,108
DA:692,108
DA:694,108
DA:695,108
DA:697,108
DA:698,4
DA:700,104
DA:703,104
DA:704,104
DA:706,484
DA:707,104
DA:708,380
DA:709,276
DA:710,552
DA:711,276
DA:712,552
DA:713,276
DA:715,276
DA:717,104
DA:721,104
DA:722,104
DA:724,2748
DA:725,2644
DA:726,2644
DA:727,2540
DA:728,5080
DA:729,5080
DA:732,588
DA:733,276
DA:734,16
DA:735,32
DA:736,32
DA:742,104
DA:750,208
DA:754,208
DA:757,1456
DA:758,2080
DA:759,1040
DA:760,656
DA:761,260
DA:763,260
DA:769,208
DA:771,24
DA:772,48
DA:773,24
DA:778,936
DA:779,780
DA:780,684
DA:783,636
DA:784,212
DA:785,20
DA:786,20
DA:787,40
DA:788,40
DA:789,20
DA:791,20
DA:797,936
DA:798,780
DA:799,16
DA:801,244
DA:806,868
DA:807,244
DA:808,456
DA:810,32
DA:814,208
DA:821,104
DA:822,104
DA:825,104
DA:826,80
DA:827,56
DA:828,112
DA:829,168
DA:830,56
DA:832,176
DA:833,352
DA:834,352
DA:835,168
DA:836,112
DA:837,144
DA:838,48
DA:839,48
DA:841,48
DA:845,104
DA:852,4
DA:854,4
DA:855,4
DA:861,4
DA:863,4
DA:864,4
LF:422
LH:422
end_of_record
TN:
SF:/home/eyalsoha/private/pcb2gcode/drill.hpp
FN:60,_ZNK8drillbit9as_lengthEv
FNDA:576,_ZNK8drillbit9as_lengthEv
FNF:1
FNH:1
DA:39,12
DA:53,2636
DA:60,576
DA:61,576
DA:62,576
DA:63,576
LF:6
LH:6
end_of_record
TN:
SF:/home/eyalsoha/private/pcb2gcode/eulerian_paths.cpp
FN:21,_ZN14eulerian_paths19make_eulerian_pathsERKSt6vectorISt4pairIN5boost8geometry5model10linestringINS4_2d28point_xyIdNS3_2cs9cartesianEEES0_SaEEbESaISC_EE
FN:45,_ZZN14eulerian_paths19make_eulerian_pathsERKSt6vectorISt4pairIN5boost8geometry5model10linestringINS4_2d28point_xyIdNS3_2cs9cartesianEEES0_SaEEbESaISC_EEENK13PointLessThanclERKSA_SJ_
FN:73,_ZN14eulerian_paths19make_eulerian_pathsERKSt6vectorIN5boost8geometry5model10linestringINS3_2d28point_xyIdNS2_2cs9cartesianEEES0_SaEESaISA_EEb
FNDA:1037,_ZN14eulerian_paths19make_eulerian_pathsERKSt6vectorIN5boost8geometry5model10linestringINS3_2d28point_xyIdNS2_2cs9cartesianEEES0_SaEESaISA_EEb
FNDA:8181,_ZN14eulerian_paths19make_eulerian_pathsERKSt6vectorISt4pairIN5boost8geometry5model10linestringINS4_2d28point_xyIdNS3_2cs9cartesianEEES0_SaEEbESaISC_EE
FNDA:0,_ZZN14eulerian_paths19make_eulerian_pathsERKSt6vectorISt4pairIN5boost8geometry5model10linestringINS4_2d28point_xyIdNS3_2cs9cartesianEEES0_SaEEbESaISC_EEENK13PointLessThanclERKSA_SJ_
FNF:3
FNH:2
DA:21,8181
DA:24,8181
DA:25,8181
DA:29,16362
DA:30,16362
DA:31,56937
DA:33,888315
DA:34,823527
DA:35,0
DA:36,2470581
DA:37,3294108
DA:38,823527
DA:41,16362
DA:44,8181
DA:45,0
DA:46,337163902
DA:51,16362
DA:52,16362
DA:53,8181
DA:54,16362
DA:55,1609899
DA:57,2378034
DA:58,792678
DA:59,792678
DA:60,3170712
DA:61,3170712
DA:62,792678
DA:63,792678
DA:66,8181
DA:70,16362
DA:73,1037
DA:74,2074
DA:75,45609
DA:76,21249
DA:78,2074
LF:35
LH:33
end_of_record
TN:
SF:/home/eyalsoha/private/pcb2gcode/eulerian_paths.hpp
FN:50,_ZN14eulerian_paths14eulerian_pathsIN5boost8geometry5model2d28point_xyIlNS2_2cs9cartesianEEENS3_10linestringIS8_St6vectorSaEENS3_16multi_linestringISB_SA_SaEEN20eulerian_paths_tests13PointLessThanEEC2ERKSD_RKSA_IbSaIbEE
FN:50,_ZN14eulerian_paths14eulerian_pathsIiSt6vectorIiSaIiEES1_IS3_SaIS3_EESt4lessIiEEC2ERKS5_RKS1_IbSaIbEE
FN:50,_ZN14eulerian_paths14eulerian_pathsIN5boost8geometry5model2d28point_xyIdNS2_2cs9cartesianEEENS3_10linestringIS8_St6vectorSaEENS3_16multi_linestringISB_SA_SaEEZNS_19make_eulerian_pathsERKSA_ISt4pairISB_bESaISF_EEE13PointLessThanEC2ERKSD_RKSA_IbSaIbEE
FN:53,_ZN14eulerian_paths14eulerian_pathsIN5boost8geometry5model2d28point_xyIlNS2_2cs9cartesianEEENS3_10linestringIS8_St6vectorSaEENS3_16multi_linestringISB_SA_SaEEN20eulerian_paths_tests13PointLessThanEE3getEv
FN:53,_ZN14eulerian_paths14eulerian_pathsIN5boost8geometry5model2d28point_xyIdNS2_2cs9cartesianEEENS3_10linestringIS8_St6vectorSaEENS3_16multi_linestringISB_SA_SaEEZNS_19make_eulerian_pathsERKSA_ISt4pairISB_bESaISF_EEE13PointLessThanE3getEv
FN:53,_ZN14eulerian_paths14eulerian_pathsIiSt6vectorIiSaIiEES1_IS3_SaIS3_EESt4lessIiEE3getEv
FN:128,_ZNK14eulerian_paths14eulerian_pathsIN5boost8geometry5model2d28point_xyIdNS2_2cs9cartesianEEENS3_10linestringIS8_St6vectorSaEENS3_16multi_linestringISB_SA_SaEEZNS_19make_eulerian_pathsERKSA_ISt4pairISB_bESaISF_EEE13PointLessThanE10must_startERKS8_
FN:128,_ZNK14eulerian_paths14eulerian_pathsIN5boost8geometry5model2d28point_xyIlNS2_2cs9cartesianEEENS3_10linestringIS8_St6vectorSaEENS3_16multi_linestringISB_SA_SaEEN20eulerian_paths_tests13PointLessThanEE10must_startERKS8_
FN:128,_ZNK14eulerian_paths14eulerian_pathsIiSt6vectorIiSaIiEES1_IS3_SaIS3_EESt4lessIiEE10must_startERKi
FN:137,_ZN14eulerian_paths14eulerian_pathsIN5boost8geometry5model2d28point_xyIdNS2_2cs9cartesianEEENS3_10linestringIS8_St6vectorSaEENS3_16multi_linestringISB_SA_SaEEZNS_19make_eulerian_pathsERKSA_ISt4pairISB_bESaISF_EEE13PointLessThanE17add_paths_to_mapsEv
FN:137,_ZN14eulerian_paths14eulerian_pathsIiSt6vectorIiSaIiEES1_IS3_SaIS3_EESt4lessIiEE17add_paths_to_mapsEv
FN:137,_ZN14eulerian_paths14eulerian_pathsIN5boost8geometry5model2d28point_xyIlNS2_2cs9cartesianEEENS3_10linestringIS8_St6vectorSaEENS3_16multi_linestringISB_SA_SaEEN20eulerian_paths_tests13PointLessThanEE17add_paths_to_mapsEv
FN:167,_ZN14eulerian_paths14eulerian_pathsIiSt6vectorIiSaIiEES1_IS3_SaIS3_EESt4lessIiEE9make_pathERKiPS3_
FN:167,_ZN14eulerian_paths14eulerian_pathsIN5boost8geometry5model2d28point_xyIlNS2_2cs9cartesianEEENS3_10linestringIS8_St6vectorSaEENS3_16multi_linestringISB_SA_SaEEN20eulerian_paths_tests13PointLessThanEE9make_pathERKS8_PSB_
FN:167,_ZN14eulerian_paths14eulerian_pathsIN5boost8geometry5model2d28point_xyIdNS2_2cs9cartesianEEENS3_10linestringIS8_St6vectorSaEENS3_16multi_linestringISB_SA_SaEEZNS_19make_eulerian_pathsERKSA_ISt4pairISB_bESaISF_EEE13PointLessThanE9make_pathERKS8_PSB_
FN:214,_ZN14eulerian_paths14eulerian_pathsIiSt6vectorIiSaIiEES1_IS3_SaIS3_EESt4lessIiEE12stitch_loopsEPS3_
FN:214,_ZN14eulerian_paths14eulerian_pathsIN5boost8geometry5model2d28point_xyIlNS2_2cs9cartesianEEENS3_10linestringIS8_St6vectorSaEENS3_16multi_linestringISB_SA_SaEEN20eulerian_paths_tests13PointLessThanEE12stitch_loopsEPSB_
FN:214,_ZN14eulerian_paths14eulerian_pathsIN5boost8geometry5model2d28point_xyIdNS2_2cs9cartesianEEENS3_10linestringIS8_St6vectorSaEENS3_16multi_linestringISB_SA_SaEEZNS_19make_eulerian_pathsERKSA_ISt4pairISB_bESaISF_EEE13PointLessThanE12stitch_loopsEPSB_
FN:247,_ZN14eulerian_paths18get_eulerian_pathsIN5boost8geometry5model2d28point_xyIlNS2_2cs9cartesianEEENS3_10linestringIS8_St6vectorSaEENS3_16multi_linestringISB_SA_SaEEN20eulerian_paths_tests13PointLessThanEEET1_RKSG_RKSA_IbSaIbEE
FN:247,_ZN14eulerian_paths18get_eulerian_pathsIN5boost8geometry5model2d28point_xyIdNS2_2cs9cartesianEEENS3_10linestringIS8_St6vectorSaEENS3_16multi_linestringISB_SA_SaEEZNS_19make_eulerian_pathsERKSA_ISt4pairISB_bESaISF_EEE13PointLessThanEET1_RKSL_RKSA_IbSaIbEE
FN:247,_ZN14eulerian_paths18get_eulerian_pathsIiSt6vectorIiSaIiEES1_IS3_SaIS3_EESt4lessIiEEET1_RKS8_RKS1_IbSaIbEE
FNDA:17,_ZN14eulerian_paths14eulerian_pathsIiSt6vectorIiSaIiEES1_IS3_SaIS3_EESt4lessIiEE12stitch_loopsEPS3_
FNDA:786892,_ZNK14eulerian_paths14eulerian_pathsIN5boost8geometry5model2d28point_xyIdNS2_2cs9cartesianEEENS3_10linestringIS8_St6vectorSaEENS3_16multi_linestringISB_SA_SaEEZNS_19make_eulerian_pathsERKSA_ISt4pairISB_bESaISF_EEE13PointLessThanE10must_startERKS8_
FNDA:1,_ZN14eulerian_paths18get_eulerian_pathsIN5boost8geometry5model2d28point_xyIlNS2_2cs9cartesianEEENS3_10linestringIS8_St6vectorSaEENS3_16multi_linestringISB_SA_SaEEN20eulerian_paths_tests13PointLessThanEEET1_RKSG_RKSA_IbSaIbEE
FNDA:1,_ZN14eulerian_paths14eulerian_pathsIN5boost8geometry5model2d28point_xyIlNS2_2cs9cartesianEEENS3_10linestringIS8_St6vectorSaEENS3_16multi_linestringISB_SA_SaEEN20eulerian_paths_tests13PointLessThanEEC2ERKSD_RKSA_IbSaIbEE
FNDA:9,_ZN14eulerian_paths14eulerian_pathsIiSt6vectorIiSaIiEES1_IS3_SaIS3_EESt4lessIiEEC2ERKS5_RKS1_IbSaIbEE
FNDA:1,_ZN14eulerian_paths14eulerian_pathsIN5boost8geometry5model2d28point_xyIlNS2_2cs9cartesianEEENS3_10linestringIS8_St6vectorSaEENS3_16multi_linestringISB_SA_SaEEN20eulerian_paths_tests13PointLessThanEE12stitch_loopsEPSB_
FNDA:3,_ZNK14eulerian_paths14eulerian_pathsIN5boost8geometry5model2d28point_xyIlNS2_2cs9cartesianEEENS3_10linestringIS8_St6vectorSaEENS3_16multi_linestringISB_SA_SaEEN20eulerian_paths_tests13PointLessThanEE10must_startERKS8_
FNDA:162,_ZN14eulerian_paths14eulerian_pathsIiSt6vectorIiSaIiEES1_IS3_SaIS3_EESt4lessIiEE9make_pathERKiPS3_
FNDA:9,_ZN14eulerian_paths14eulerian_pathsIiSt6vectorIiSaIiEES1_IS3_SaIS3_EESt4lessIiEE17add_paths_to_mapsEv
FNDA:8181,_ZN14eulerian_paths14eulerian_pathsIN5boost8geometry5model2d28point_xyIdNS2_2cs9cartesianEEENS3_10linestringIS8_St6vectorSaEENS3_16multi_linestringISB_SA_SaEEZNS_19make_eulerian_pathsERKSA_ISt4pairISB_bESaISF_EEE13PointLessThanE17add_paths_to_mapsEv
FNDA:8181,_ZN14eulerian_paths14eulerian_pathsIN5boost8geometry5model2d28point_xyIdNS2_2cs9cartesianEEENS3_10linestringIS8_St6vectorSaEENS3_16multi_linestringISB_SA_SaEEZNS_19make_eulerian_pathsERKSA_ISt4pairISB_bESaISF_EEE13PointLessThanE3getEv
FNDA:1,_ZN14eulerian_paths14eulerian_pathsIN5boost8geometry5model2d28point_xyIlNS2_2cs9cartesianEEENS3_10linestringIS8_St6vectorSaEENS3_16multi_linestringISB_SA_SaEEN20eulerian_paths_tests13PointLessThanEE3getEv
FNDA:1,_ZN14eulerian_paths14eulerian_pathsIN5boost8geometry5model2d28point_xyIlNS2_2cs9cartesianEEENS3_10linestringIS8_St6vectorSaEENS3_16multi_linestringISB_SA_SaEEN20eulerian_paths_tests13PointLessThanEE17add_paths_to_mapsEv
FNDA:8181,_ZN14eulerian_paths18get_eulerian_pathsIN5boost8geometry5model2d28point_xyIdNS2_2cs9cartesianEEENS3_10linestringIS8_St6vectorSaEENS3_16multi_linestringISB_SA_SaEEZNS_19make_eulerian_pathsERKSA_ISt4pairISB_bESaISF_EEE13PointLessThanEET1_RKSL_RKSA_IbSaIbEE
FNDA:67,_ZNK14eulerian_paths14eulerian_pathsIiSt6vectorIiSaIiEES1_IS3_SaIS3_EESt4lessIiEE10must_startERKi
FNDA:20214,_ZN14eulerian_paths14eulerian_pathsIN5boost8geometry5model2d28point_xyIdNS2_2cs9cartesianEEENS3_10linestringIS8_St6vectorSaEENS3_16multi_linestringISB_SA_SaEEZNS_19make_eulerian_pathsERKSA_ISt4pairISB_bESaISF_EEE13PointLessThanE12stitch_loopsEPSB_
FNDA:9,_ZN14eulerian_paths18get_eulerian_pathsIiSt6vectorIiSaIiEES1_IS3_SaIS3_EESt4lessIiEEET1_RKS8_RKS1_IbSaIbEE
FNDA:5,_ZN14eulerian_paths14eulerian_pathsIN5boost8geometry5model2d28point_xyIlNS2_2cs9cartesianEEENS3_10linestringIS8_St6vectorSaEENS3_16multi_linestringISB_SA_SaEEN20eulerian_paths_tests13PointLessThanEE9make_pathERKS8_PSB_
FNDA:8181,_ZN14eulerian_paths14eulerian_pathsIN5boost8geometry5model2d28point_xyIdNS2_2cs9cartesianEEENS3_10linestringIS8_St6vectorSaEENS3_16multi_linestringISB_SA_SaEEZNS_19make_eulerian_pathsERKSA_ISt4pairISB_bESaISF_EEE13PointLessThanEC2ERKSD_RKSA_IbSaIbEE
FNDA:9,_ZN14eulerian_paths14eulerian_pathsIiSt6vectorIiSaIiEES1_IS3_SaIS3_EESt4lessIiEE3getEv
FNDA:1625784,_ZN14eulerian_paths14eulerian_pathsIN5boost8geometry5model2d28point_xyIdNS2_2cs9cartesianEEENS3_10linestringIS8_St6vectorSaEENS3_16multi_linestringISB_SA_SaEEZNS_19make_eulerian_pathsERKSA_ISt4pairISB_bESaISF_EEE13PointLessThanE9make_pathERKS8_PSB_
FNF:21
FNH:21
DA:16,4756068
DA:21,786927
DA:25,786630
DA:32,786493
DA:50,8191
DA:52,8191
DA:53,8191
DA:83,8191
DA:85,8191
DA:86,799128
DA:87,786962
DA:89,37221
DA:90,12407
DA:91,12407
DA:92,12407
DA:105,36980
DA:106,12407
DA:111,32764
DA:112,48414
DA:113,15650
DA:114,23475
DA:115,7825
DA:116,7825
DA:119,7825
DA:120,7825
DA:124,8191
DA:128,786962
DA:131,786962
DA:132,786962
DA:133,786962
DA:134,786962
DA:137,8191
DA:139,8191
DA:140,8191
DA:141,8191
DA:142,8191
DA:144,800934
DA:145,792743
DA:146,1585486
DA:148,2
DA:150,792741
DA:151,792741
DA:152,792741
DA:153,1585482
DA:154,727667
DA:155,727667
DA:156,727667
DA:158,65074
DA:159,65074
DA:162,8191
DA:167,1625951
DA:170,1625951
DA:171,1625951
DA:172,3251902
DA:173,1560877
DA:174,1560877
DA:175,3121754
DA:180,792741
DA:181,792741
DA:182,1585482
DA:184,2678046
DA:187,2078400
DA:189,792741
DA:190,792741
DA:192,1585482
DA:193,792741
DA:194,1149278
DA:195,2298556
DA:197,792741
DA:202,792741
DA:214,20232
DA:217,40464
DA:218,833210
DA:220,1625956
DA:222,812978
DA:224,5502
DA:225,786
DA:228,20232
DA:247,8191
DA:249,8191
LF:80
LH:80
end_of_record
TN:
SF:/home/eyalsoha/private/pcb2gcode/gerberimporter.cpp
FN:64,_ZN14GerberImporterC2Ev
FN:68,_ZN14GerberImporterD2Ev
FN:68,_ZN14GerberImporterD0Ev
FN:73,_ZN14GerberImporter9load_fileERKNSt7__cxx1112basic_stringIcSt11char_traitsIcESaIcEEE
FN:80,_ZNK14GerberImporter9get_min_xEv
FN:84,_ZNK14GerberImporter9get_max_xEv
FN:88,_ZNK14GerberImporter9get_min_yEv
FN:92,_ZNK14GerberImporter9get_max_yEv
FN:99,_Z20make_regular_polygonN5boost8geometry5model2d28point_xyIdNS0_2cs9cartesianEEEdjd
FN:118,_Z20make_regular_polygonN5boost8geometry5model2d28point_xyIdNS0_2cs9cartesianEEEdjddj
FN:130,_Z14make_rectangleN5boost8geometry5model2d28point_xyIdNS0_2cs9cartesianEEEdddj
FN:150,_Z14make_rectangleN5boost8geometry5model2d28point_xyIdNS0_2cs9cartesianEEES6_d
FN:164,_Z9make_ovalN5boost8geometry5model2d28point_xyIdNS0_2cs9cartesianEEEdddj
FN:204,_Z32linear_draw_rectangular_apertureN5boost8geometry5model2d28point_xyIdNS0_2cs9cartesianEEES6_dd
FN:221,_Z9get_angleN5boost8geometry5model2d28point_xyIdNS0_2cs9cartesianEEES6_S6_b
FN:235,_Z12circular_arcRKN5boost8geometry5model2d28point_xyIdNS0_2cs9cartesianEEES8_S6_RKdSA_dRKbRKj
FN:302,_ZL36unsupported_polarity_throw_exceptionv
FN:317,_ZN7mp_pairC2EN5boost8geometry5model13multi_polygonINS2_7polygonINS2_2d28point_xyIdNS1_2cs9cartesianEEELb1ELb1ESt6vectorSA_SaSaEESA_SaEE
FN:320,_ZNK7mp_pairplERKS_
FN:330,_Z17merge_multi_drawsRKSt6vectorI7mp_pairSaIS0_EE
FN:349,_Z15generate_layersRSt6vectorISt4pairIPK13gerbv_layer_tS_I7mp_pairSaIS4_EEESaIS7_EEMS4_N5boost8geometry5model13multi_polygonINSD_7polygonINSD_2d28point_xyIdNSC_2cs9cartesianEEELb1ELb1ES_S_SaSaEES_SaEEb
FN:391,_Z10make_moirePKdj
FN:416,_Z12make_thermalN5boost8geometry5model2d28point_xyIdNS0_2cs9cartesianEEEdddj
FN:430,_Z10get_all_lsRKN5boost8geometry5model10linestringINS1_2d28point_xyIdNS0_2cs9cartesianEEESt6vectorSaEE
FN:455,_Z13get_all_ringsRKN5boost8geometry5model4ringINS1_2d28point_xyIdNS0_2cs9cartesianEEELb1ELb1ESt6vectorSaEE
FN:464,_Z15simplify_cutinsRKN5boost8geometry5model4ringINS1_2d28point_xyIdNS0_2cs9cartesianEEELb1ELb1ESt6vectorSaEE
FN:493,_Z22generate_apertures_mapPKPK14gerbv_aperturej
FN:670,_Z17layers_equivalentPK13gerbv_layer_tS1_
FN:695,_Z15paths_to_shapesRKdRKN5boost8geometry5model16multi_linestringINS3_10linestringINS3_2d28point_xyIdNS2_2cs9cartesianEEESt6vectorSaEESB_SaEEb
FN:724,_ZZ15paths_to_shapesRKdRKN5boost8geometry5model16multi_linestringINS3_10linestringINS3_2d28point_xyIdNS2_2cs9cartesianEEESt6vectorSaEESB_SaEEbENKUlRKSC_E_clESH_
FN:746,_ZNK14GerberImporter6renderEbbj
FNDA:391,_ZN14GerberImporter9load_fileERKNSt7__cxx1112basic_stringIcSt11char_traitsIcESaIcEEE
FNDA:1207,_Z20make_regular_polygonN5boost8geometry5model2d28point_xyIdNS0_2cs9cartesianEEEdjddj
FNDA:369,_ZN14GerberImporterD0Ev
FNDA:391,_ZN14GerberImporterC2Ev
FNDA:248,_ZNK14GerberImporter9get_min_yEv
FNDA:27,_Z12make_thermalN5boost8geometry5model2d28point_xyIdNS0_2cs9cartesianEEEdddj
FNDA:22,_ZN14GerberImporterD2Ev
FNDA:2572,_Z13get_all_ringsRKN5boost8geometry5model4ringINS1_2d28point_xyIdNS0_2cs9cartesianEEELb1ELb1ESt6vectorSaEE
FNDA:501,_Z15paths_to_shapesRKdRKN5boost8geometry5model16multi_linestringINS3_10linestringINS3_2d28point_xyIdNS2_2cs9cartesianEEESt6vectorSaEESB_SaEEb
FNDA:248,_ZNK14GerberImporter9get_max_xEv
FNDA:0,_ZL36unsupported_polarity_throw_exceptionv
FNDA:2572,_Z15simplify_cutinsRKN5boost8geometry5model4ringINS1_2d28point_xyIdNS0_2cs9cartesianEEELb1ELb1ESt6vectorSaEE
FNDA:216,_Z9get_angleN5boost8geometry5model2d28point_xyIdNS0_2cs9cartesianEEES6_S6_b
FNDA:248,_ZNK14GerberImporter9get_max_yEv
FNDA:248,_ZNK14GerberImporter9get_min_xEv
FNDA:700,_Z15generate_layersRSt6vectorISt4pairIPK13gerbv_layer_tS_I7mp_pairSaIS4_EEESaIS7_EEMS4_N5boost8geometry5model13multi_polygonINSD_7polygonINSD_2d28point_xyIdNSC_2cs9cartesianEEELb1ELb1ES_S_SaSaEES_SaEEb
FNDA:6752,_ZN7mp_pairC2EN5boost8geometry5model13multi_polygonINS2_7polygonINS2_2d28point_xyIdNS1_2cs9cartesianEEELb1ELb1ESt6vectorSA_SaSaEESA_SaEE
FNDA:107,_Z9make_ovalN5boost8geometry5model2d28point_xyIdNS0_2cs9cartesianEEEdddj
FNDA:191,_Z12circular_arcRKN5boost8geometry5model2d28point_xyIdNS0_2cs9cartesianEEES8_S6_RKdSA_dRKbRKj
FNDA:13718,_ZNK7mp_pairplERKS_
FNDA:350,_ZNK14GerberImporter6renderEbbj
FNDA:559,_Z14make_rectangleN5boost8geometry5model2d28point_xyIdNS0_2cs9cartesianEEEdddj
FNDA:0,_ZZ15paths_to_shapesRKdRKN5boost8geometry5model16multi_linestringINS3_10linestringINS3_2d28point_xyIdNS2_2cs9cartesianEEESt6vectorSaEESB_SaEEbENKUlRKSC_E_clESH_
FNDA:6210,_Z10get_all_lsRKN5boost8geometry5model10linestringINS1_2d28point_xyIdNS0_2cs9cartesianEEESt6vectorSaEE
FNDA:2648,_Z17merge_multi_drawsRKSt6vectorI7mp_pairSaIS0_EE
FNDA:8,_Z32linear_draw_rectangular_apertureN5boost8geometry5model2d28point_xyIdNS0_2cs9cartesianEEES6_dd
FNDA:1349,_Z20make_regular_polygonN5boost8geometry5model2d28point_xyIdNS0_2cs9cartesianEEEdjd
FNDA:350,_Z22generate_apertures_mapPKPK14gerbv_aperturej
FNDA:27,_Z10make_moirePKdj
FNDA:0,_Z17layers_equivalentPK13gerbv_layer_tS1_
FNDA:32,_Z14make_rectangleN5boost8geometry5model2d28point_xyIdNS0_2cs9cartesianEEES6_d
FNF:31
FNH:28
DA:64,391
DA:65,391
DA:66,391
DA:68,1151
DA:69,391
DA:70,391
DA:73,391
DA:74,782
DA:75,391
DA:76,391
DA:77,391
DA:80,248
DA:81,248
DA:84,248
DA:85,248
DA:88,248
DA:89,248
DA:92,248
DA:93,248
DA:99,1349
DA:101,1349
DA:103,1349
DA:104,1349
DA:106,1349
DA:107,53945
DA:108,105192
DA:109,105192
DA:111,2698
DA:112,1349
DA:113,1349
DA:114,2698
DA:118,1207
DA:121,1207
DA:122,1207
DA:124,1207
DA:125,62
DA:127,1207
DA:130,559
DA:132,559
DA:133,559
DA:135,559
DA:136,559
DA:137,559
DA:138,1118
DA:139,1118
DA:140,1118
DA:141,1118
DA:142,1118
DA:144,559
DA:145,1
DA:147,559
DA:150,32
DA:151,32
DA:152,32
DA:153,32
DA:154,32
DA:155,64
DA:156,32
DA:157,32
DA:158,32
DA:159,32
DA:160,64
DA:161,64
DA:164,107
DA:166,321
DA:167,321
DA:168,107
DA:170,210
DA:171,315
DA:172,2
DA:174,2
DA:175,3
DA:179,1
DA:182,106
DA:183,212
DA:184,106
DA:185,106
DA:186,212
DA:187,212
DA:188,106
DA:189,106
DA:190,106
DA:191,212
DA:193,106
DA:194,4
DA:195,4
DA:196,2
DA:197,2
DA:199,212
DA:200,106
DA:201,212
DA:204,8
DA:207,8
DA:208,32
DA:209,48
DA:210,128
DA:211,256
DA:215,8
DA:216,8
DA:217,8
DA:218,16
DA:221,216
DA:222,864
DA:223,864
DA:224,216
DA:225,267
DA:226,102
DA:228,250
DA:229,68
DA:231,216
DA:235,191
DA:240,191
DA:241,191
DA:242,6
DA:244,573
DA:246,89
DA:249,261
DA:252,87
DA:253,87
DA:254,2
DA:259,306
DA:260,306
DA:261,306
DA:262,102
DA:263,412
DA:264,432
DA:265,342
DA:266,114
DA:267,342
DA:270,192
DA:271,256
DA:273,1
DA:274,1
DA:281,764
DA:282,191
DA:283,191
DA:284,191
DA:285,382
DA:286,191
DA:287,191
DA:289,191
DA:290,4781
DA:291,4590
DA:292,4590
DA:293,4590
DA:294,4590
DA:295,9180
DA:296,9180
DA:298,191
DA:299,191
DA:302,0
DA:303,0
DA:305,0
DA:306,0
DA:315,181639
DA:316,14219
DA:317,13504
DA:320,13718
DA:321,13718
DA:322,13718
DA:323,13718
DA:324,13718
DA:330,2648
DA:331,5296
DA:332,20
DA:333,2638
DA:334,1536
DA:336,1870
DA:337,3740
DA:338,1870
DA:339,730
DA:340,730
DA:343,46764
DA:344,41154
DA:346,1870
DA:349,700
DA:351,700
DA:352,700
DA:354,3734
DA:355,778
DA:356,778
DA:357,778
DA:358,1556
DA:359,1556
DA:362,1556
DA:363,786
DA:364,16
DA:365,24
DA:366,16
DA:367,8
DA:371,778
DA:372,794
DA:373,32
DA:374,48
DA:375,32
DA:376,16
DA:378,778
DA:379,149
DA:380,629
DA:381,593
DA:382,36
DA:383,36
DA:385,0
DA:388,700
DA:391,27
DA:392,27
DA:393,27
DA:395,27
DA:396,27
DA:397,27
DA:398,27
DA:399,27
DA:400,27
DA:401,27
DA:402,27
DA:403,60
DA:404,58
DA:405,58
DA:406,58
DA:408,33
DA:409,0
DA:410,66
DA:411,33
DA:413,27
DA:416,27
DA:418,27
DA:419,27
DA:421,54
DA:422,54
DA:423,54
DA:430,6210
DA:431,112200
DA:432,997177
DA:433,1860806
DA:434,4965
DA:435,1401
DA:437,508
DA:438,508
DA:441,762
DA:442,762
DA:444,508
DA:445,508
DA:446,1016
DA:447,508
DA:452,11912
DA:455,2572
DA:456,7716
DA:457,2572
DA:458,12924
DA:459,7812
DA:461,2572
DA:464,2572
DA:465,2572
DA:466,2572
DA:467,2572
DA:468,10989
DA:469,2604
DA:470,5208
DA:471,1935
DA:473,669
DA:474,1334
DA:475,667
DA:476,667
DA:479,10989
DA:480,2604
DA:481,5208
DA:482,1935
DA:484,669
DA:485,4
DA:486,2
DA:487,2
DA:490,2572
DA:493,350
DA:494,350
DA:495,350
DA:496,3500000
DA:497,3499650
DA:499,3499650
DA:500,1893
DA:501,3786
DA:503,1893
DA:505,0
DA:507,1141
DA:508,1141
DA:513,1141
DA:514,1141
DA:515,395
DA:516,395
DA:520,395
DA:521,395
DA:522,107
DA:523,107
DA:527,107
DA:528,107
DA:529,5
DA:530,20
DA:532,5
DA:535,5
DA:536,5
DA:537,245
DA:538,245
DA:542,490
DA:543,245
DA:544,245
DA:545,245
DA:546,490
DA:547,490
DA:549,245
DA:550,0
DA:551,0
DA:552,0
DA:553,0
DA:554,0
DA:555,0
DA:556,0
DA:557,0
DA:558,0
DA:559,0
DA:560,0
DA:561,0
DA:562,26
DA:563,52
DA:566,26
DA:567,26
DA:568,26
DA:569,26
DA:570,26
DA:571,26
DA:572,26
DA:573,131
DA:574,105
DA:575,105
DA:577,26
DA:578,26
DA:580,26
DA:581,26
DA:582,26
DA:583,51
DA:584,51
DA:586,51
DA:587,51
DA:588,51
DA:589,51
DA:590,51
DA:591,27
DA:592,27
DA:593,27
DA:594,27
DA:595,27
DA:596,27
DA:597,54
DA:601,27
DA:602,27
DA:603,27
DA:604,27
DA:605,32
DA:606,96
DA:608,32
DA:609,32
DA:610,32
DA:611,32
DA:612,28
DA:613,56
DA:616,28
DA:617,28
DA:618,28
DA:619,28
DA:620,28
DA:621,28
DA:622,28
DA:625,28
DA:626,28
DA:627,28
DA:628,28
DA:629,0
DA:630,0
DA:631,0
DA:632,0
DA:636,245
DA:638,245
DA:639,0
DA:641,245
DA:643,245
DA:646,0
DA:650,0
DA:651,0
DA:652,0
DA:653,0
DA:654,0
DA:655,0
DA:656,0
DA:657,0
DA:658,0
DA:660,0
DA:661,0
DA:664,1893
DA:667,350
DA:670,0
DA:671,33118
DA:672,33118
DA:674,33118
DA:675,33080
DA:676,33079
DA:677,33079
DA:678,33079
DA:695,501
DA:696,501
DA:697,501
DA:698,157
DA:699,1
DA:703,501
DA:704,1002
DA:705,1002
DA:706,7763
DA:707,6260
DA:708,12520
DA:710,501
DA:711,501
DA:712,676
DA:713,820
DA:715,193
DA:716,193
DA:717,193
DA:718,386
DA:719,193
DA:720,193
DA:724,2505
DA:725,501
DA:727,712
DA:728,356
DA:730,12
DA:731,12
DA:732,12
DA:734,344
DA:737,1002
DA:746,350
DA:750,350
DA:751,700
DA:752,350
DA:754,1050
DA:756,350
DA:758,350
DA:759,0
DA:762,700
DA:763,350
DA:766,700
DA:767,33468
DA:768,33118
DA:769,33118
DA:770,33118
DA:771,66236
DA:773,66236
DA:774,39
DA:776,125
DA:777,24
DA:779,39
DA:781,78
DA:782,78
DA:785,33118
DA:787,33118
DA:788,30381
DA:789,24570
DA:790,20130
DA:791,637
DA:793,10065
DA:795,14505
DA:798,14497
DA:799,43491
DA:800,14497
DA:801,14497
DA:802,14497
DA:803,8
DA:804,8
DA:805,8
DA:806,16
DA:808,0
DA:809,0
DA:810,0
DA:813,5811
DA:814,4188
DA:815,0
DA:816,0
DA:818,4188
DA:820,8376
DA:821,20940
DA:823,0
DA:824,0
DA:826,8376
DA:828,1623
DA:829,1623
DA:830,1273
DA:831,2546
DA:832,1273
DA:835,0
DA:837,2737
DA:839,1464
DA:840,1273
DA:841,2546
DA:842,1273
DA:843,191
DA:845,191
DA:846,191
DA:847,191
DA:848,191
DA:849,191
DA:850,43
DA:852,191
DA:853,191
DA:854,382
DA:855,382
DA:857,0
DA:858,573
DA:859,191
DA:860,8
DA:861,20
DA:863,0
DA:866,187
DA:867,187
DA:868,6869
DA:869,10023
DA:870,6682
DA:871,6682
DA:872,3341
DA:875,0
DA:876,0
DA:877,0
DA:881,0
DA:883,0
DA:884,0
DA:885,0
DA:887,0
DA:888,0
DA:890,0
DA:891,0
DA:893,0
DA:896,350
DA:898,1531
DA:899,1479
DA:901,346
DA:903,700
DA:904,350
DA:905,141
DA:907,209
DA:910,350
DA:913,0
DA:914,0
DA:915,0
DA:916,0
DA:917,0
DA:919,1058
DA:920,8
DA:922,700
LF:552
LH:487
end_of_record
TN:
SF:/home/eyalsoha/private/pcb2gcode/gerberimporter.hpp
FN:66,_ZNK14GerberImporter11get_projectEv
FNDA:0,_ZNK14GerberImporter11get_projectEv
FNF:1
FNH:0
DA:41,0
DA:66,0
DA:67,38
LF:3
LH:1
end_of_record
TN:
SF:/home/eyalsoha/private/pcb2gcode/layer.hpp
FNF:0
FNH:0
DA:42,1103
LF:1
LH:1
end_of_record
TN:
SF:/home/eyalsoha/private/pcb2gcode/merge_near_points.cpp
FN:10,_ZNK13PointLessThanclERKN5boost8geometry5model2d28point_xyIdNS1_2cs9cartesianEEES9_
FN:17,_Z17merge_near_pointsRSt3mapIN5boost8geometry5model2d28point_xyIdNS1_2cs9cartesianEEES7_13PointLessThanSaISt4pairIKS7_S7_EEEd
FN:37,_Z17merge_near_pointsRSt6vectorISt4pairIN5boost8geometry5model10linestringINS3_2d28point_xyIdNS2_2cs9cartesianEEES_SaEEbESaISB_EEd
FN:55,_Z17merge_near_pointsRN5boost8geometry5model16multi_linestringINS1_10linestringINS1_2d28point_xyIdNS0_2cs9cartesianEEESt6vectorSaEES9_SaEEd
FNDA:8338,_Z17merge_near_pointsRSt3mapIN5boost8geometry5model2d28point_xyIdNS1_2cs9cartesianEEES7_13PointLessThanSaISt4pairIKS7_S7_EEEd
FNDA:0,_ZNK13PointLessThanclERKN5boost8geometry5model2d28point_xyIdNS1_2cs9cartesianEEES9_
FNDA:8181,_Z17merge_near_pointsRSt6vectorISt4pairIN5boost8geometry5model10linestringINS3_2d28point_xyIdNS2_2cs9cartesianEEES_SaEEbESaISB_EEd
FNDA:157,_Z17merge_near_pointsRN5boost8geometry5model16multi_linestringINS1_10linestringINS1_2d28point_xyIdNS0_2cs9cartesianEEESt6vectorSaEES9_SaEEd
FNF:4
FNH:3
DA:10,0
DA:11,195366059
DA:17,8338
DA:20,8338
DA:21,8338
DA:22,785257
DA:24,3713198
DA:25,9282995
DA:26,1088018
DA:27,4352072
DA:28,1277664
DA:29,7528
DA:30,22584
DA:34,8338
DA:37,8181
DA:38,8181
DA:39,56937
DA:40,1809024
DA:41,855921
DA:44,8181
DA:45,8181
DA:46,7320
DA:47,666800
DA:48,329359
DA:52,8181
DA:55,157
DA:56,157
DA:57,2288
DA:58,12719
DA:59,3634
DA:62,157
DA:63,157
DA:64,8
DA:65,35
DA:66,10
DA:70,157
LF:36
LH:35
end_of_record
TN:
SF:/home/eyalsoha/private/pcb2gcode/ngc_exporter.cpp
FN:57,_ZN12NGC_ExporterC2ESt10shared_ptrI5BoardE
FN:64,_ZN12NGC_Exporter10add_headerENSt7__cxx1112basic_stringIcSt11char_traitsIcESaIcEEE
FN:73,_ZN12NGC_Exporter10export_allERN5boost15program_options13variables_mapE
FN:143,_ZN12NGC_Exporter14cutter_millingERSt14basic_ofstreamIcSt11char_traitsIcEESt10shared_ptrI6CutterES5_ISt6vectorISt4pairIddESaISA_EEERKS8_ImSaImEEdd
FN:186,_ZN12NGC_Exporter17isolation_millingERSt14basic_ofstreamIcSt11char_traitsIcEESt10shared_ptrI11RoutingMillES5_ISt6vectorISt4pairIddESaISA_EEERN5boost8optionalI12autolevellerEEdd
FN:227,_ZN12NGC_Exporter12export_layerESt10shared_ptrI5LayerENSt7__cxx1112basic_stringIcSt11char_traitsIcESaIcEEEN5boost8optionalI12autolevellerEE
FN:380,_ZN12NGC_Exporter12set_preambleENSt7__cxx1112basic_stringIcSt11char_traitsIcESaIcEEE
FN:389,_ZN12NGC_Exporter13set_postambleENSt7__cxx1112basic_stringIcSt11char_traitsIcESaIcEEE
FNDA:313,_ZN12NGC_Exporter12export_layerESt10shared_ptrI5LayerENSt7__cxx1112basic_stringIcSt11char_traitsIcESaIcEEEN5boost8optionalI12autolevellerEE
FNDA:213,_ZN12NGC_ExporterC2ESt10shared_ptrI5BoardE
FNDA:4,_ZN12NGC_Exporter12set_preambleENSt7__cxx1112basic_stringIcSt11char_traitsIcESaIcEEE
FNDA:388,_ZN12NGC_Exporter14cutter_millingERSt14basic_ofstreamIcSt11char_traitsIcEESt10shared_ptrI6CutterES5_ISt6vectorISt4pairIddESaISA_EEERKS8_ImSaImEEdd
FNDA:4,_ZN12NGC_Exporter13set_postambleENSt7__cxx1112basic_stringIcSt11char_traitsIcESaIcEEE
FNDA:9764,_ZN12NGC_Exporter17isolation_millingERSt14basic_ofstreamIcSt11char_traitsIcEESt10shared_ptrI11RoutingMillES5_ISt6vectorISt4pairIddESaISA_EEERN5boost8optionalI12autolevellerEEdd
FNDA:213,_ZN12NGC_Exporter10add_headerENSt7__cxx1112basic_stringIcSt11char_traitsIcESaIcEEE
FNDA:213,_ZN12NGC_Exporter10export_allERN5boost15program_options13variables_mapE
FNF:8
FNH:8
DA:57,213
DA:58,213
DA:64,213
DA:66,213
DA:67,213
DA:73,213
DA:76,426
DA:77,426
DA:78,639
DA:79,639
DA:82,213
DA:84,426
DA:86,24
DA:87,36
DA:91,201
DA:92,201
DA:94,840
DA:95,840
DA:97,426
DA:99,739
DA:101,626
DA:102,48
DA:103,72
DA:105,289
DA:106,289
DA:108,1240
DA:109,1240
DA:110,313
DA:111,513
DA:112,193
DA:113,764
DA:116,626
DA:117,939
DA:118,935
DA:119,20
DA:120,20
DA:123,626
DA:124,313
DA:125,626
DA:126,313
DA:127,959
DA:128,313
DA:129,614
DA:130,626
DA:131,614
DA:132,313
DA:133,200
DA:134,313
DA:136,213
DA:143,388
DA:145,776
DA:147,2004
DA:148,1616
DA:150,1616
DA:151,1616
DA:152,1616
DA:154,1616
DA:156,57676
DA:157,168180
DA:160,528
DA:161,528
DA:165,168180
DA:166,4856
DA:169,4856
DA:173,56060
DA:174,56060
DA:177,56060
DA:178,4856
DA:179,4856
DA:180,4856
DA:184,388
DA:186,9764
DA:188,9764
DA:190,19528
DA:191,2160
DA:192,1620
DA:193,2160
DA:194,2160
DA:196,27672
DA:197,108
DA:198,216
DA:199,108
DA:201,9224
DA:204,9764
DA:205,9764
DA:207,29292
DA:209,1286876
DA:210,623910
DA:211,50552
DA:212,50552
DA:214,286679
DA:215,286679
DA:217,311955
DA:219,29292
DA:220,108
DA:221,216
DA:222,108
DA:224,9764
DA:227,313
DA:228,939
DA:229,939
DA:230,939
DA:232,313
DA:233,0
DA:236,313
DA:237,313
DA:240,313
DA:241,626
DA:244,1252
DA:246,313
DA:249,626
DA:250,28
DA:252,285
DA:254,313
DA:255,313
DA:257,313
DA:259,313
DA:260,12
DA:261,12
DA:263,301
DA:264,301
DA:267,313
DA:268,313
DA:270,626
DA:271,301
DA:274,313
DA:276,626
DA:277,40
DA:278,40
DA:281,626
DA:282,626
DA:285,626
DA:286,313
DA:287,772
DA:288,624
DA:289,188
DA:294,979
DA:295,353
DA:296,353
DA:297,8
DA:299,1380
DA:300,1380
DA:301,1035
DA:302,690
DA:303,2070
DA:306,345
DA:307,678
DA:308,345
DA:309,345
DA:310,345
DA:311,345
DA:312,132
DA:313,213
DA:314,213
DA:316,0
DA:318,345
DA:319,345
DA:320,12
DA:322,333
DA:324,345
DA:325,345
DA:326,345
DA:327,345
DA:329,345
DA:331,802
DA:332,457
DA:333,1142
DA:334,685
DA:336,685
DA:337,408
DA:340,11522
DA:341,40608
DA:342,20304
DA:343,0
DA:347,10152
DA:348,10152
DA:349,10152
DA:350,30456
DA:355,10152
DA:356,1552
DA:358,29292
DA:364,345
DA:366,626
DA:367,40
DA:369,313
DA:370,313
DA:373,313
DA:380,4
DA:382,4
DA:383,4
DA:389,4
DA:391,4
DA:392,4
LF:193
LH:190
end_of_record
TN:
SF:/home/eyalsoha/private/pcb2gcode/options.hpp
FN:100,_ZNK25pcb2gcode_parse_exception4whatEv
FN:103,_ZNK25pcb2gcode_parse_exception4codeEv
FNDA:0,_ZNK25pcb2gcode_parse_exception4whatEv
FNDA:0,_ZNK25pcb2gcode_parse_exception4codeEv
FNF:2
FNH:0
DA:100,0
DA:101,0
DA:103,0
DA:104,0
DA:126,23
LF:5
LH:1
end_of_record
TN:
SF:/home/eyalsoha/private/pcb2gcode/outline_bridges.cpp
FN:38,_Z17intermediatePointSt4pairIddES0_d
FN:47,_Z13insertBridgesSt10shared_ptrISt6vectorISt4pairIddESaIS2_EEERKSt3setImSt4lessImESaImEEd
FN:76,_ZL19min_clique_distanceRKSt3setImSt4lessImESaImEERKSt3mapImSt4pairIddES1_SaIS7_IKmS8_EEERSt6vectorImS2_E
FN:95,_ZL22min_distance_to_cliqueSt4pairIddERKSt6vectorImSaImEERKSt3setImSt4lessImES2_ERKSt3mapImS0_S8_SaIS_IKmS0_EEE
FN:126,_Z18findBridgeSegmentsSt10shared_ptrISt6vectorISt4pairIddESaIS2_EEEmd
FN:190,_ZN15outline_bridges11makeBridgesERSt10shared_ptrISt6vectorISt4pairIddESaIS3_EEEmd
FNDA:188,_Z18findBridgeSegmentsSt10shared_ptrISt6vectorISt4pairIddESaIS2_EEEmd
FNDA:188,_Z13insertBridgesSt10shared_ptrISt6vectorISt4pairIddESaIS2_EEERKSt3setImSt4lessImESaImEEd
FNDA:188,_ZN15outline_bridges11makeBridgesERSt10shared_ptrISt6vectorISt4pairIddESaIS3_EEEmd
FNDA:332,_ZL19min_clique_distanceRKSt3setImSt4lessImESaImEERKSt3mapImSt4pairIddES1_SaIS7_IKmS8_EEERSt6vectorImS2_E
FNDA:3844,_ZL22min_distance_to_cliqueSt4pairIddERKSt6vectorImSaImEERKSt3setImSt4lessImES2_ERKSt3mapImS0_S8_SaIS_IKmS0_EEE
FNDA:0,_Z17intermediatePointSt4pairIddES0_d
FNF:6
FNH:5
DA:38,0
DA:39,4104
DA:40,1368
DA:47,188
DA:48,752
DA:49,940
DA:50,564
DA:52,188
DA:53,644
DA:55,228
DA:56,456
DA:57,456
DA:58,228
DA:60,684
DA:63,456
DA:66,1368
DA:67,228
DA:70,248
DA:76,332
DA:79,332
DA:80,1988
DA:81,3428
DA:82,4208
DA:83,2104
DA:84,576
DA:85,576
DA:86,1152
DA:90,332
DA:95,3844
DA:99,11532
DA:100,27080
DA:101,15548
DA:102,46644
DA:103,62192
DA:106,46816
DA:107,14728
DA:111,3844
DA:126,188
DA:127,188
DA:128,128
DA:132,60
DA:133,2052
DA:134,3984
DA:135,1992
DA:138,6384
DA:139,1824
DA:140,912
DA:145,120
DA:146,408
DA:147,528
DA:150,228
DA:153,180
DA:154,196
DA:158,196
DA:159,196
DA:160,196
DA:161,196
DA:162,196
DA:163,196
DA:164,5208
DA:165,4620
DA:167,776
DA:170,11532
DA:171,15376
DA:172,15376
DA:173,864
DA:174,864
DA:175,864
DA:176,864
DA:180,196
DA:183,136
DA:184,136
DA:185,136
DA:187,120
DA:190,188
DA:191,564
LF:76
LH:75
end_of_record
TN:
SF:/home/eyalsoha/private/pcb2gcode/path_finding.cpp
FN:27,_ZN12path_finding18PathFindingSurfaceC2ERKN5boost8geometry5model13multi_polygonINS3_7polygonINS3_2d28point_xyIdNS2_2cs9cartesianEEELb1ELb1ESt6vectorSB_SaSaEESB_SaEERKNS1_8optionalISD_EEd
FN:68,_ZN12path_finding15is_intersectingERKN5boost8geometry5model2d28point_xyIdNS1_2cs9cartesianEEES9_S9_S9_
FN:101,_ZN12path_finding11PathSurfaceC2ERKSt10shared_ptrIKNS_18PathFindingSurfaceEEN5boost8geometry5model2d28point_xyIdNS8_2cs9cartesianEEESE_St8functionIFbRKSE_RKdEE
FN:134,_ZNK12path_finding11PathSurface10in_surfaceERKmS2_
FN:238,_ZN12path_finding19OutEdgeIteratorImpl20move_to_valid_targetEv
FN:273,_ZNK12path_finding18VertexIteratorImpldeEv
FN:276,_ZN12path_finding18VertexIteratorImplppEv
FN:279,_ZNK12path_finding18VertexIteratorImpleqERKS0_
FN:287,_ZN12path_finding8verticesERKNS_11PathSurfaceE
FN:291,_ZN12path_finding9out_edgesERKmRKNS_11PathSurfaceE
FN:295,_ZN12path_finding10out_degreeEmRKNS_11PathSurfaceE
FN:306,_ZN12path_finding6sourceESt4pairImmERKNS_11PathSurfaceE
FN:310,_ZN12path_finding6targetESt4pairImmERKNS_11PathSurfaceE
FN:314,_ZN12path_finding12num_verticesERKNS_11PathSurfaceE
FN:336,_ZN12path_finding20PathSurfaceHeuristicclEm
FN:352,_ZN12path_finding16AstarGoalVisitor14examine_vertexEmRKNS_11PathSurfaceE
FN:362,_ZN12path_finding27create_path_finding_surfaceERKN5boost8geometry5model13multi_polygonINS2_7polygonINS2_2d28point_xyIdNS1_2cs9cartesianEEELb1ELb1ESt6vectorSA_SaSaEESA_SaEERKNS0_8optionalISC_EEd
FN:371,_ZN12path_finding9find_pathESt10shared_ptrIKNS_18PathFindingSurfaceEERKN5boost8geometry5model2d28point_xyIdNS5_2cs9cartesianEEESD_St8functionIFbSD_RKdEE
FN:392,_ZZN12path_finding9find_pathESt10shared_ptrIKNS_18PathFindingSurfaceEERKN5boost8geometry5model2d28point_xyIdNS5_2cs9cartesianEEESD_St8functionIFbSD_RKdEEENKUlRKSt4pairImmEE_clESM_.isra.1534
FN:392,_ZZN12path_finding9find_pathESt10shared_ptrIKNS_18PathFindingSurfaceEERKN5boost8geometry5model2d28point_xyIdNS5_2cs9cartesianEEESD_St8functionIFbSD_RKdEEENKUlRKSt4pairImmEE_clESM_
FNDA:0,_ZN12path_finding8verticesERKNS_11PathSurfaceE
FNDA:21179,_ZN12path_finding9find_pathESt10shared_ptrIKNS_18PathFindingSurfaceEERKN5boost8geometry5model2d28point_xyIdNS5_2cs9cartesianEEESD_St8functionIFbSD_RKdEE
FNDA:2870,_ZN12path_finding15is_intersectingERKN5boost8geometry5model2d28point_xyIdNS1_2cs9cartesianEEES9_S9_S9_
FNDA:19313,_ZN12path_finding11PathSurfaceC2ERKSt10shared_ptrIKNS_18PathFindingSurfaceEEN5boost8geometry5model2d28point_xyIdNS8_2cs9cartesianEEESE_St8functionIFbRKSE_RKdEE
FNDA:0,_ZNK12path_finding18VertexIteratorImpldeEv
FNDA:3387,_ZN12path_finding27create_path_finding_surfaceERKN5boost8geometry5model13multi_polygonINS2_7polygonINS2_2d28point_xyIdNS1_2cs9cartesianEEELb1ELb1ESt6vectorSA_SaSaEESA_SaEERKNS0_8optionalISC_EEd
FNDA:3004,_ZN12path_finding19OutEdgeIteratorImpl20move_to_valid_targetEv
FNDA:0,_ZZN12path_finding9find_pathESt10shared_ptrIKNS_18PathFindingSurfaceEERKN5boost8geometry5model2d28point_xyIdNS5_2cs9cartesianEEESD_St8functionIFbSD_RKdEEENKUlRKSt4pairImmEE_clESM_
FNDA:1471,_ZN12path_finding9out_edgesERKmRKNS_11PathSurfaceE
FNDA:0,_ZN12path_finding6sourceESt4pairImmERKNS_11PathSurfaceE
FNDA:3387,_ZN12path_finding18PathFindingSurfaceC2ERKN5boost8geometry5model13multi_polygonINS3_7polygonINS3_2d28point_xyIdNS2_2cs9cartesianEEELb1ELb1ESt6vectorSB_SaSaEESB_SaEERKNS1_8optionalISD_EEd
FNDA:0,_ZN12path_finding16AstarGoalVisitor14examine_vertexEmRKNS_11PathSurfaceE
FNDA:0,_ZN12path_finding10out_degreeEmRKNS_11PathSurfaceE
FNDA:1490,_ZN12path_finding20PathSurfaceHeuristicclEm
FNDA:0,_ZN12path_finding6targetESt4pairImmERKNS_11PathSurfaceE
FNDA:0,_ZN12path_finding12num_verticesERKNS_11PathSurfaceE
FNDA:0,_ZN12path_finding18VertexIteratorImplppEv
FNDA:0,_ZNK12path_finding18VertexIteratorImpleqERKS0_
FNDA:124,_ZZN12path_finding9find_pathESt10shared_ptrIKNS_18PathFindingSurfaceEERKN5boost8geometry5model2d28point_xyIdNS5_2cs9cartesianEEESD_St8functionIFbSD_RKdEEENKUlRKSt4pairImmEE_clESM_.isra.1534
FNDA:135,_ZNK12path_finding11PathSurface10in_surfaceERKmS2_
FNF:20
FNH:10
DA:27,3387
DA:29,6774
DA:30,3387
DA:31,3387
DA:33,6774
DA:34,5218
DA:37,3387
DA:38,15108
DA:39,488870
DA:40,469082
DA:42,22139
DA:43,213321
DA:44,206268
DA:49,10161
DA:52,33782315
DA:54,3387
DA:58,4704084
DA:59,6774
DA:60,10161
DA:62,3387
DA:63,3387
DA:68,2870
DA:70,5740
DA:71,5740
DA:72,5740
DA:73,5740
DA:75,2870
DA:76,2870
DA:79,2833
DA:81,5666
DA:82,5666
DA:83,2833
DA:84,2833
DA:88,1482
DA:89,1482
DA:93,790
DA:94,756
DA:101,19313
DA:103,38626
DA:104,19313
DA:105,735845
DA:106,658593
DA:107,1463
DA:110,19313
DA:111,19313
DA:112,19313
DA:113,35940048
DA:114,71725592
DA:115,35860808
DA:118,19313
DA:119,19313
DA:122,15565
DA:126,19313
DA:131,19313
DA:134,135
DA:135,135
DA:136,36
DA:138,99
DA:139,99
DA:140,198
DA:141,32
DA:143,83
DA:144,83
DA:145,298
DA:146,83
DA:147,10934
DA:148,5420
DA:149,18
DA:150,18
DA:153,292
DA:154,672
DA:155,320
DA:156,16
DA:157,16
DA:162,49
DA:163,49
DA:215,2926
DA:216,2926
DA:218,2942
DA:219,2942
DA:220,5884
DA:221,2942
DA:224,186
DA:227,62
DA:228,62
DA:231,73
DA:232,73
DA:233,146
DA:238,3004
DA:239,4512
DA:240,9024
DA:243,3030
DA:244,1471
DA:245,1471
DA:247,3118
DA:248,1460
DA:249,1460
DA:250,2920
DA:251,3118
DA:252,0
DA:253,0
DA:255,99
DA:256,37
DA:257,37
DA:261,1544
DA:270,0
DA:273,0
DA:274,0
DA:276,0
DA:277,0
DA:278,0
DA:279,0
DA:280,0
DA:287,0
DA:288,0
DA:291,1471
DA:292,2942
DA:295,0
DA:296,0
DA:298,0
DA:299,0
DA:300,0
DA:303,0
DA:306,0
DA:307,0
DA:310,0
DA:311,62
DA:314,0
DA:315,2926
DA:330,2926
DA:333,1463
DA:334,2926
DA:336,1490
DA:337,7450
DA:338,5960
DA:350,2926
DA:352,0
DA:353,0
DA:354,0
DA:356,0
DA:362,3387
DA:366,3387
DA:367,3387
DA:368,3387
DA:371,21179
DA:375,61671
DA:376,21179
DA:377,21179
DA:378,42358
DA:379,1866
DA:381,19313
DA:383,38626
DA:384,38626
DA:385,35700
DA:388,7315
DA:391,1463
DA:392,124
DA:393,620
DA:394,496
DA:395,1463
DA:398,1463
DA:399,1463
DA:400,4389
DA:401,1463
DA:402,1463
DA:403,2926
DA:404,1463
DA:405,5852
DA:406,3
DA:407,6
DA:408,10
DA:409,21
DA:411,6
DA:412,3
DA:413,3
DA:414,1460
DA:415,2920
DA:417,0
LF:178
LH:151
end_of_record
TN:
SF:/home/eyalsoha/private/pcb2gcode/segmentize.cpp
FN:26,_ZN10segmentize10segmentizeERKSt6vectorIN5boost7polygon12segment_dataIlEESaIS4_EERKS0_IbSaIbEE
FNDA:8188,_ZN10segmentize10segmentizeERKSt6vectorIN5boost7polygon12segment_dataIlEESaIS4_EERKS0_IbSaIbEE
FNF:1
FNH:1
DA:13,199124
DA:26,8188
DA:28,8188
DA:29,24564
DA:30,8188
DA:31,909043
DA:32,884479
DA:33,884479
DA:34,1768958
DA:35,884479
DA:37,66167
DA:38,66167
DA:39,132334
DA:40,132334
DA:41,132334
DA:42,132334
DA:43,66167
DA:44,33395
DA:46,67064
DA:47,67064
DA:48,67064
DA:52,24564
DA:53,24564
DA:54,32752
DA:56,15216
LF:25
LH:25
end_of_record
TN:
SF:/home/eyalsoha/private/pcb2gcode/surface_vectorial.cpp
FN:68,_ZN17Surface_vectorialC2EjddddNSt7__cxx1112basic_stringIcSt11char_traitsIcESaIcEEES5_bN17MillFeedDirection17MillFeedDirectionEbb
FN:85,_ZN17Surface_vectorial6renderESt10shared_ptrI14GerberImporterE
FN:108,_Z6invertRKN17MillFeedDirection17MillFeedDirectionE
FN:118,_Z15mirror_toolpathRKN5boost8geometry5model16multi_linestringINS1_10linestringINS1_2d28point_xyIdNS0_2cs9cartesianEEESt6vectorSaEES9_SaEEb
FN:134,_Z14mls_to_icoordsRKN5boost8geometry5model16multi_linestringINS1_10linestringINS1_2d28point_xyIdNS0_2cs9cartesianEEESt6vectorSaEES9_SaEE
FN:147,_Z20find_thermal_reliefsRKN5boost8geometry5model13multi_polygonINS1_7polygonINS1_2d28point_xyIdNS0_2cs9cartesianEEELb1ELb1ESt6vectorS9_SaSaEES9_SaEEd
FN:170,_Z11flatten_mlsRKSt6vectorIS_ISt4pairIN5boost8geometry5model10linestringINS3_2d28point_xyIdNS2_2cs9cartesianEEES_SaEEbESaISB_EESaISD_EE
FN:178,_ZNK17Surface_vectorial10write_svgsERKNSt7__cxx1112basic_stringIcSt11char_traitsIcESaIcEEEdRKSt6vectorIS8_ISt4pairIN5boost8geometry5model10linestringINSC_2d28point_xyIdNSB_2cs9cartesianEEES8_SaEEbESaISK_EESaISM_EEdb
FN:232,_ZNK17Surface_vectorial21post_process_toolpathERKSt10shared_ptrI11RoutingMillERKSt6vectorISt4pairIN5boost8geometry5model10linestringINS9_2d28point_xyIdNS8_2cs9cartesianEEES5_SaEEbESaISH_EE
FN:264,_Z11attach_ringRKN5boost8geometry5model10linestringINS1_2d28point_xyIdNS0_2cs9cartesianEEESt6vectorSaEERSt4pairIS9_bERKN17MillFeedDirection17MillFeedDirectionERKSt8functionIFNS_8optionalIS9_EERKS7_SN_EE
FN:321,_Z9attach_lsRKN5boost8geometry5model10linestringINS1_2d28point_xyIdNS0_2cs9cartesianEEESt6vectorSaEERSt4pairIS9_bERKN17MillFeedDirection17MillFeedDirectionERKSt8functionIFNS_8optionalIS9_EERKS7_SN_EE
FN:429,_Z9attach_lsRKN5boost8geometry5model10linestringINS1_2d28point_xyIdNS0_2cs9cartesianEEESt6vectorSaEERS8_ISt4pairIS9_bESaISD_EERKN17MillFeedDirection17MillFeedDirectionERKSt8functionIFNS_8optionalIS9_EERKS7_SP_EE
FN:463,_Z11attach_ringRKN5boost8geometry5model4ringINS1_2d28point_xyIdNS0_2cs9cartesianEEELb1ELb1ESt6vectorSaEERS8_ISt4pairINS1_10linestringIS7_S8_SaEEbESaISF_EERKN17MillFeedDirection17MillFeedDirectionERKNS1_13multi_polygonINS1_7polygonIS7_Lb1ELb1ES8_S8_SaSaEES8_SaEERKSt8functionIFNS_8optionalISE_EERKS7_SX_EE
FN:484,_Z15attach_polygonsRKN5boost8geometry5model13multi_polygonINS1_7polygonINS1_2d28point_xyIdNS0_2cs9cartesianEEELb1ELb1ESt6vectorS9_SaSaEES9_SaEERS9_ISt4pairINS1_10linestringIS8_S9_SaEEbESaISH_EERKN17MillFeedDirection17MillFeedDirectionESD_RKSt8functionIFNS_8optionalISG_EERKS8_ST_EE
FN:516,_ZNK17Surface_vectorial19get_single_toolpathESt10shared_ptrI11RoutingMillEmbddRKN5boost8geometry5model13multi_polygonINS5_7polygonINS5_2d28point_xyIdNS4_2cs9cartesianEEELb1ELb1ESt6vectorSD_SaSaEESD_SaEE
FN:558,_ZZNK17Surface_vectorial19get_single_toolpathESt10shared_ptrI11RoutingMillEmbddRKN5boost8geometry5model13multi_polygonINS5_7polygonINS5_2d28point_xyIdNS4_2cs9cartesianEEELb1ELb1ESt6vectorSD_SaSaEESD_SaEEENKUlRKSC_SJ_E_clESJ_SJ_.isra.158
FN:558,_ZZNK17Surface_vectorial19get_single_toolpathESt10shared_ptrI11RoutingMillEmbddRKN5boost8geometry5model13multi_polygonINS5_7polygonINS5_2d28point_xyIdNS4_2cs9cartesianEEELb1ELb1ESt6vectorSD_SaSaEESD_SaEEENKUlRKSC_SJ_E_clESJ_SJ_
FN:572,_ZZZNK17Surface_vectorial19get_single_toolpathESt10shared_ptrI11RoutingMillEmbddRKN5boost8geometry5model13multi_polygonINS5_7polygonINS5_2d28point_xyIdNS4_2cs9cartesianEEELb1ELb1ESt6vectorSD_SaSaEESD_SaEEENKUlRKSC_SJ_E_clESJ_SJ_ENKUlSJ_RKdE_clESJ_SM_
FN:619,_ZN17Surface_vectorial12get_toolpathESt10shared_ptrI11RoutingMillEb
FN:707,_ZZN17Surface_vectorial12get_toolpathESt10shared_ptrI11RoutingMillEbENKUlRKN5boost8geometry5model2d28point_xyIdNS4_2cs9cartesianEEESC_E_clESC_SC_
FN:746,_ZN17Surface_vectorial16save_debug_imageENSt7__cxx1112basic_stringIcSt11char_traitsIcESaIcEEE
FN:760,_ZN17Surface_vectorial14enable_fillingEv
FN:764,_ZN17Surface_vectorial8add_maskESt10shared_ptrIS_E
FN:773,_ZNK17Surface_vectorial14offset_polygonERKN5boost8optionalINS0_8geometry5model7polygonINS3_2d28point_xyIdNS2_2cs9cartesianEEELb1ELb1ESt6vectorSA_SaSaEEEERKSB_ddjb
FN:881,_ZN10svg_writerC2ENSt7__cxx1112basic_stringIcSt11char_traitsIcESaIcEEEN5boost8geometry5model3boxINS8_2d28point_xyIdNS7_2cs9cartesianEEEEE
FN:904,_ZN10svg_writer3addIN5boost8geometry5model13multi_polygonINS3_7polygonINS3_2d28point_xyIdNS2_2cs9cartesianEEELb1ELb1ESt6vectorSB_SaSaEESB_SaEEEEvRKT_db
FN:923,_ZN10svg_writer3addERKN5boost8geometry5model16multi_linestringINS2_10linestringINS2_2d28point_xyIdNS1_2cs9cartesianEEESt6vectorSaEESA_SaEEdb
FN:935,_ZN10svg_writer3addERKN5boost8geometry5model10linestringINS2_2d28point_xyIdNS1_2cs9cartesianEEESt6vectorSaEEdjjj
FN:946,_ZN10svg_writer3addERKN5boost8geometry5model16multi_linestringINS2_10linestringINS2_2d28point_xyIdNS1_2cs9cartesianEEESt6vectorSaEESA_SaEEdjjj
FNDA:132,_ZN17Surface_vectorial8add_maskESt10shared_ptrIS_E
FNDA:56,_Z20find_thermal_reliefsRKN5boost8geometry5model13multi_polygonINS1_7polygonINS1_2d28point_xyIdNS0_2cs9cartesianEEELb1ELb1ESt6vectorS9_SaSaEES9_SaEEd
FNDA:0,_Z6invertRKN17MillFeedDirection17MillFeedDirectionE
FNDA:5790,_Z15attach_polygonsRKN5boost8geometry5model13multi_polygonINS1_7polygonINS1_2d28point_xyIdNS0_2cs9cartesianEEELb1ELb1ESt6vectorS9_SaSaEES9_SaEERS9_ISt4pairINS1_10linestringIS8_S9_SaEEbESaISH_EERKN17MillFeedDirection17MillFeedDirectionESD_RKSt8functionIFNS_8optionalISG_EERKS8_ST_EE
FNDA:329,_ZN17Surface_vectorial6renderESt10shared_ptrI14GerberImporterE
FNDA:140,_ZN17Surface_vectorial14enable_fillingEv
FNDA:6711,_Z9attach_lsRKN5boost8geometry5model10linestringINS1_2d28point_xyIdNS0_2cs9cartesianEEESt6vectorSaEERS8_ISt4pairIS9_bESaISD_EERKN17MillFeedDirection17MillFeedDirectionERKSt8functionIFNS_8optionalIS9_EERKS7_SP_EE
FNDA:461,_ZN17Surface_vectorial16save_debug_imageENSt7__cxx1112basic_stringIcSt11char_traitsIcESaIcEEE
FNDA:3382,_ZNK17Surface_vectorial14offset_polygonERKN5boost8optionalINS0_8geometry5model7polygonINS3_2d28point_xyIdNS2_2cs9cartesianEEELb1ELb1ESt6vectorSA_SaSaEEEERKSB_ddjb
FNDA:329,_ZN17Surface_vectorialC2EjddddNSt7__cxx1112basic_stringIcSt11char_traitsIcESaIcEEES5_bN17MillFeedDirection17MillFeedDirectionEbb
FNDA:0,_ZZNK17Surface_vectorial19get_single_toolpathESt10shared_ptrI11RoutingMillEmbddRKN5boost8geometry5model13multi_polygonINS5_7polygonINS5_2d28point_xyIdNS4_2cs9cartesianEEELb1ELb1ESt6vectorSD_SaSaEESD_SaEEENKUlRKSC_SJ_E_clESJ_SJ_
FNDA:21173,_ZZNK17Surface_vectorial19get_single_toolpathESt10shared_ptrI11RoutingMillEmbddRKN5boost8geometry5model13multi_polygonINS5_7polygonINS5_2d28point_xyIdNS4_2cs9cartesianEEELb1ELb1ESt6vectorSD_SaSaEESD_SaEEENKUlRKSC_SJ_E_clESJ_SJ_.isra.158
FNDA:1199,_ZN10svg_writerC2ENSt7__cxx1112basic_stringIcSt11char_traitsIcESaIcEEEN5boost8geometry5model3boxINS8_2d28point_xyIdNS7_2cs9cartesianEEEEE
FNDA:6795,_Z11attach_ringRKN5boost8geometry5model4ringINS1_2d28point_xyIdNS0_2cs9cartesianEEELb1ELb1ESt6vectorSaEERS8_ISt4pairINS1_10linestringIS7_S8_SaEEbESaISF_EERKN17MillFeedDirection17MillFeedDirectionERKNS1_13multi_polygonINS1_7polygonIS7_Lb1ELb1ES8_S8_SaSaEES8_SaEERKSt8functionIFNS_8optionalISE_EERKS7_SX_EE
FNDA:22489,_Z11attach_ringRKN5boost8geometry5model10linestringINS1_2d28point_xyIdNS0_2cs9cartesianEEESt6vectorSaEERSt4pairIS9_bERKN17MillFeedDirection17MillFeedDirectionERKSt8functionIFNS_8optionalIS9_EERKS7_SN_EE
FNDA:345,_Z11flatten_mlsRKSt6vectorIS_ISt4pairIN5boost8geometry5model10linestringINS3_2d28point_xyIdNS2_2cs9cartesianEEES_SaEEbESaISB_EESaISD_EE
FNDA:1167,_ZN10svg_writer3addIN5boost8geometry5model13multi_polygonINS3_7polygonINS3_2d28point_xyIdNS2_2cs9cartesianEEELb1ELb1ESt6vectorSB_SaSaEESB_SaEEEEvRKT_db
FNDA:0,_ZZN17Surface_vectorial12get_toolpathESt10shared_ptrI11RoutingMillEbENKUlRKN5boost8geometry5model2d28point_xyIdNS4_2cs9cartesianEEESC_E_clESC_SC_
FNDA:1460,_ZZZNK17Surface_vectorial19get_single_toolpathESt10shared_ptrI11RoutingMillEmbddRKN5boost8geometry5model13multi_polygonINS5_7polygonINS5_2d28point_xyIdNS4_2cs9cartesianEEELb1ELb1ESt6vectorSD_SaSaEESD_SaEEENKUlRKSC_SJ_E_clESJ_SJ_ENKUlSJ_RKdE_clESJ_SM_
FNDA:313,_ZN17Surface_vectorial12get_toolpathESt10shared_ptrI11RoutingMillEb
FNDA:0,_ZN10svg_writer3addERKN5boost8geometry5model16multi_linestringINS2_10linestringINS2_2d28point_xyIdNS1_2cs9cartesianEEESt6vectorSaEESA_SaEEdjjj
FNDA:32,_ZN10svg_writer3addERKN5boost8geometry5model16multi_linestringINS2_10linestringINS2_2d28point_xyIdNS1_2cs9cartesianEEESt6vectorSaEESA_SaEEdb
FNDA:353,_Z14mls_to_icoordsRKN5boost8geometry5model16multi_linestringINS1_10linestringINS1_2d28point_xyIdNS0_2cs9cartesianEEESt6vectorSaEES9_SaEE
FNDA:353,_ZNK17Surface_vectorial10write_svgsERKNSt7__cxx1112basic_stringIcSt11char_traitsIcESaIcEEEdRKSt6vectorIS8_ISt4pairIN5boost8geometry5model10linestringINSC_2d28point_xyIdNSB_2cs9cartesianEEES8_SaEEbESaISK_EESaISM_EEdb
FNDA:3382,_ZNK17Surface_vectorial19get_single_toolpathESt10shared_ptrI11RoutingMillEmbddRKN5boost8geometry5model13multi_polygonINS5_7polygonINS5_2d28point_xyIdNS4_2cs9cartesianEEELb1ELb1ESt6vectorSD_SaSaEESD_SaEE
FNDA:353,_ZNK17Surface_vectorial21post_process_toolpathERKSt10shared_ptrI11RoutingMillERKSt6vectorISt4pairIN5boost8geometry5model10linestringINS9_2d28point_xyIdNS8_2cs9cartesianEEES5_SaEEbESaISH_EE
FNDA:13627,_ZN10svg_writer3addERKN5boost8geometry5model10linestringINS2_2d28point_xyIdNS1_2cs9cartesianEEESt6vectorSaEEdjjj
FNDA:353,_Z15mirror_toolpathRKN5boost8geometry5model16multi_linestringINS1_10linestringINS1_2d28point_xyIdNS0_2cs9cartesianEEESt6vectorSaEES9_SaEEb
FNDA:24964,_Z9attach_lsRKN5boost8geometry5model10linestringINS1_2d28point_xyIdNS0_2cs9cartesianEEESt6vectorSaEERSt4pairIS9_bERKN17MillFeedDirection17MillFeedDirectionERKSt8functionIFNS_8optionalIS9_EERKS7_SN_EE
FNF:29
FNH:25
DA:68,329
DA:73,329
DA:75,658
DA:76,329
DA:83,987
DA:85,329
DA:86,987
DA:88,329
DA:89,8
DA:92,4
DA:96,329
DA:97,329
DA:98,658
DA:99,995
DA:100,24
DA:101,8
DA:102,8
DA:103,16
DA:105,329
DA:108,0
DA:109,0
DA:111,4786
DA:114,4634
DA:118,353
DA:120,353
DA:121,15483
DA:122,21636
DA:123,406626
DA:124,577485
DA:125,384990
DA:126,192495
DA:129,7212
DA:131,353
DA:134,353
DA:135,353
DA:136,8271
DA:137,7212
DA:138,406626
DA:139,1154970
DA:142,353
DA:147,56
DA:150,56
DA:151,56
DA:152,1512
DA:153,6288
DA:154,1688
DA:155,912
DA:156,1688
DA:157,912
DA:158,912
DA:159,912
DA:160,136
DA:162,1552
DA:163,776
DA:164,776
DA:167,56
DA:170,345
DA:171,345
DA:172,7799
DA:173,16910
DA:175,345
DA:178,353
DA:182,1412
DA:183,966
DA:184,738
DA:185,353
DA:186,353
DA:187,353
DA:188,353
DA:189,3743
DA:190,3390
DA:191,3390
DA:192,3390
DA:193,3390
DA:194,14988
DA:195,4818
DA:196,4818
DA:199,3390
DA:200,9210
DA:201,4588
DA:202,4588
DA:203,4588
DA:204,10124
DA:205,3242
DA:207,2294
DA:208,4588
DA:209,908
DA:210,64
DA:212,454
DA:217,706
DA:218,32
DA:220,32
DA:222,353
DA:223,706
DA:224,1436
DA:225,24
DA:227,353
DA:232,353
DA:234,353
DA:235,706
DA:236,349
DA:238,8
DA:239,88
DA:240,76
DA:243,353
DA:244,642
DA:246,64
DA:249,706
DA:250,706
DA:251,706
DA:252,353
DA:254,353
DA:264,22489
DA:268,22489
DA:269,22489
DA:270,22489
DA:271,44978
DA:272,1094855
DA:273,3149631
DA:274,210080
DA:275,105040
DA:276,105040
DA:278,3149631
DA:279,50426
DA:280,25213
DA:281,25213
DA:284,22489
DA:285,20089
DA:286,46543
DA:287,44978
DA:290,7825
DA:291,7825
DA:292,1565
DA:293,4695
DA:294,6260
DA:298,10955
DA:299,1565
DA:300,3130
DA:304,1565
DA:308,432
DA:309,324
DA:310,108
DA:313,5828
DA:314,1457
DA:317,1565
DA:318,1565
DA:321,24964
DA:325,24964
DA:326,24964
DA:327,24964
DA:328,24964
DA:329,24964
DA:330,24964
DA:333,99856
DA:334,24964
DA:335,24964
DA:336,24964
DA:337,99856
DA:340,99856
DA:341,13552
DA:342,13552
DA:343,13552
DA:344,54208
DA:347,24964
DA:350,99840
DA:351,10408
DA:352,10408
DA:353,10408
DA:354,41632
DA:357,99840
DA:358,4816
DA:359,4816
DA:360,4816
DA:361,19264
DA:364,24964
DA:366,24920
DA:369,99680
DA:370,0
DA:371,0
DA:372,0
DA:373,0
DA:376,99680
DA:377,0
DA:378,0
DA:379,0
DA:380,0
DA:383,24920
DA:386,99680
DA:387,0
DA:388,0
DA:389,0
DA:390,0
DA:393,99680
DA:394,0
DA:395,0
DA:396,0
DA:397,0
DA:402,24964
DA:405,24964
DA:406,24964
DA:407,24964
DA:409,49928
DA:410,49928
DA:413,300
DA:414,0
DA:416,300
DA:417,2400
DA:418,300
DA:419,300
DA:420,432
DA:422,768
DA:425,300
DA:426,300
DA:429,6711
DA:433,26844
DA:436,37181
DA:437,22489
DA:442,28540
DA:443,24964
DA:448,4846
DA:449,120
DA:450,4806
DA:451,336
DA:453,14082
DA:463,6795
DA:468,6795
DA:469,20385
DA:470,6795
DA:471,13590
DA:472,33191
DA:473,6403
DA:475,6795
DA:476,26612
DA:477,6227
DA:479,6795
DA:484,5790
DA:491,23036
DA:492,11332
DA:495,12709
DA:496,6919
DA:497,27552
DA:498,20385
DA:499,1129
DA:500,3387
DA:504,5790
DA:516,3382
DA:521,3382
DA:522,3382
DA:524,3382
DA:527,3382
DA:529,6624
DA:530,6484
DA:531,6624
DA:532,3242
DA:533,3242
DA:534,9754
DA:535,3382
DA:536,3382
DA:538,6764
DA:539,10146
DA:540,7818
DA:542,6764
DA:543,3382
DA:545,6764
DA:546,6764
DA:547,3382
DA:548,6764
DA:549,6764
DA:550,5212
DA:552,10146
DA:557,3382
DA:558,21173
DA:564,42346
DA:565,148211
DA:566,21173
DA:567,21173
DA:568,42346
DA:569,21173
DA:570,21173
DA:571,21173
DA:572,1460
DA:573,2920
DA:574,1460
DA:576,0
DA:580,0
DA:581,0
DA:582,0
DA:585,21173
DA:586,84692
DA:587,6764
DA:594,3382
DA:595,9172
DA:596,5790
DA:597,5790
DA:598,5790
DA:599,2408
DA:602,1392
DA:605,1676
DA:608,5790
DA:610,8348
DA:612,5790
DA:615,6764
DA:619,313
DA:621,626
DA:622,1260
DA:623,16
DA:625,313
DA:626,32
DA:628,313
DA:630,626
DA:632,807
DA:633,313
DA:634,362
DA:635,112
DA:637,362
DA:638,543
DA:639,543
DA:641,362
DA:642,394
DA:643,426
DA:644,213
DA:645,426
DA:647,3455
DA:648,3414
DA:649,6484
DA:650,3242
DA:652,516
DA:653,344
DA:654,516
DA:655,172
DA:658,3242
DA:659,3414
DA:660,3242
DA:661,272
DA:662,136
DA:663,1496
DA:664,1088
DA:665,544
DA:666,2664
DA:667,516
DA:670,272
DA:672,6484
DA:673,18018
DA:674,8292
DA:675,8292
DA:676,4146
DA:679,6484
DA:680,3242
DA:682,3070
DA:684,344
DA:685,344
DA:686,768
DA:687,252
DA:689,344
DA:690,172
DA:691,344
DA:693,426
DA:694,426
DA:695,426
DA:696,426
DA:697,213
DA:700,732
DA:701,8
DA:702,8
DA:705,8
DA:706,8
DA:707,0
DA:708,26280
DA:709,26280
DA:710,52560
DA:711,16
DA:712,992
DA:713,484
DA:715,16
DA:716,992
DA:717,968
DA:718,968
DA:719,484
DA:722,16
DA:723,24
DA:724,16
DA:725,8
DA:727,362
DA:729,264
DA:730,132
DA:731,264
DA:732,396
DA:734,272
DA:735,700
DA:736,280
DA:738,528
DA:739,132
DA:740,264
DA:741,264
DA:743,0
DA:746,461
DA:748,461
DA:749,922
DA:751,461
DA:752,922
DA:753,1852
DA:754,8
DA:757,461
DA:758,461
DA:760,140
DA:761,140
DA:762,140
DA:764,132
DA:765,132
DA:766,528
DA:767,528
DA:768,0
DA:770,132
DA:773,3382
DA:780,3382
DA:783,3382
DA:784,3382
DA:785,6764
DA:788,1552
DA:789,776
DA:790,776
DA:795,6764
DA:796,6764
DA:797,5212
DA:800,6764
DA:803,3382
DA:804,3084
DA:807,2354
DA:808,2354
DA:810,1880
DA:811,1880
DA:812,3760
DA:814,948
DA:816,2354
DA:820,9316
DA:821,6106
DA:822,6106
DA:824,3690
DA:828,2416
DA:829,4832
DA:833,824
DA:835,1592
DA:837,2416
DA:838,144
DA:840,2272
DA:843,11752
DA:844,5962
DA:846,2512
DA:848,6900
DA:850,3450
DA:852,3450
DA:853,3258
DA:855,192
DA:858,11752
DA:859,5962
DA:863,8376
DA:865,3170
DA:867,5962
DA:868,544
DA:870,5962
DA:875,5790
DA:878,6764
DA:881,1199
DA:883,1199
DA:885,1199
DA:886,2398
DA:887,1199
DA:888,2398
DA:889,1199
DA:890,2398
DA:891,1199
DA:892,2398
DA:895,1199
DA:896,1199
DA:898,1199
DA:899,1199
DA:900,2398
DA:901,1199
DA:904,1167
DA:906,3854
DA:908,21281
DA:910,8890
DA:911,8890
DA:912,8890
DA:914,17780
DA:915,8890
DA:917,17780
DA:918,26670
DA:919,8890
DA:921,1167
DA:923,32
DA:924,96
DA:926,2032
DA:927,1936
DA:928,1936
DA:929,1936
DA:931,1936
DA:933,32
DA:935,13627
DA:937,13627
DA:938,40881
DA:939,13627
DA:941,68135
DA:944,13627
DA:946,0
DA:947,3417
DA:948,2055
DA:950,0
LF:508
LH:480
end_of_record
TN:
SF:/home/eyalsoha/private/pcb2gcode/surface_vectorial.hpp
FNF:0
FNH:0
DA:60,2490
DA:64,2490
LF:2
LH:2
end_of_record
TN:
SF:/home/eyalsoha/private/pcb2gcode/tile.cpp
FN:29,_ZN6TilingC2ENS_8TileInfoEdi
FN:32,_ZN6Tiling6headerERSt14basic_ofstreamIcSt11char_traitsIcEE
FN:55,_ZN6Tiling6footerERSt14basic_ofstreamIcSt11char_traitsIcEE
FN:81,_ZN6Tiling12tileSequenceERSt14basic_ofstreamIcSt11char_traitsIcEE
FN:105,_ZN6Tiling16generateTileInfoERKN5boost15program_options13variables_mapEdd
FNDA:28,_ZN6Tiling12tileSequenceERSt14basic_ofstreamIcSt11char_traitsIcEE
FNDA:449,_ZN6TilingC2ENS_8TileInfoEdi
FNDA:449,_ZN6Tiling6footerERSt14basic_ofstreamIcSt11char_traitsIcEE
FNDA:449,_ZN6Tiling6headerERSt14basic_ofstreamIcSt11char_traitsIcEE
FNDA:317,_ZN6Tiling16generateTileInfoERKN5boost15program_options13variables_mapEdd
FNF:5
FNH:5
DA:29,449
DA:30,898
DA:32,449
DA:34,449
DA:36,108
DA:38,28
DA:39,28
DA:40,28
DA:42,0
DA:43,0
DA:44,0
DA:45,0
DA:46,0
DA:53,449
DA:55,449
DA:57,449
DA:59,108
DA:61,28
DA:62,28
DA:63,28
DA:64,28
DA:67,0
DA:68,0
DA:69,0
DA:70,0
DA:77,449
DA:78,421
DA:79,449
DA:81,28
DA:83,28
DA:84,28
DA:85,28
DA:87,84
DA:89,56
DA:90,168
DA:92,112
DA:93,112
DA:94,112
DA:96,56
DA:97,56
DA:100,28
DA:101,28
DA:102,0
DA:103,28
DA:105,317
DA:108,317
DA:110,895
DA:111,634
DA:112,634
DA:113,317
DA:114,317
DA:116,951
DA:117,301
DA:119,32
DA:122,317
DA:124,305
DA:125,305
DA:129,12
DA:130,12
DA:133,317
LF:60
LH:50
end_of_record
TN:
SF:/home/eyalsoha/private/pcb2gcode/tile.hpp
FNF:0
FNH:0
DA:30,690
DA:53,553
DA:58,104
LF:3
LH:3
end_of_record
TN:
SF:/home/eyalsoha/private/pcb2gcode/tsp_solver.hpp
FN:38,_ZN10tsp_solver3getERKSt4pairIddENS_4SideE
FN:43,_ZN10tsp_solver7reverseERSt4pairIddE
FN:89,_ZN10tsp_solver8distanceIdEEdRKSt4pairIT_S2_ES5_
FN:112,_ZN10tsp_solver17nearest_neighbourIN5boost8geometry5model10linestringINS3_2d28point_xyIdNS2_2cs9cartesianEEESt6vectorSaEES9_EEvRSA_IT_SaISC_EERKT0_
FN:112,_ZN10tsp_solver17nearest_neighbourISt4pairIddES2_EEvRSt6vectorIT_SaIS4_EERKT0_
FN:112,_ZN10tsp_solver17nearest_neighbourISt4pairIS1_IddES2_ES2_EEvRSt6vectorIT_SaIS5_EERKT0_
FN:157,_ZN10tsp_solver8tsp_2optISt4pairIddES1_IS2_S2_EEEvRSt6vectorIT0_SaIS5_EERKN5boost8optionalIT_EE
FN:157,_ZN10tsp_solver8tsp_2optISt4pairIddES2_EEvRSt6vectorIT0_SaIS4_EERKN5boost8optionalIT_EE
FN:157,_ZN10tsp_solver8tsp_2optIN5boost8geometry5model2d28point_xyIdNS2_2cs9cartesianEEENS3_10linestringIS8_St6vectorSaEEEEvRSA_IT0_SaISC_EERKNS1_8optionalIT_EE
FNDA:6,_ZN10tsp_solver17nearest_neighbourISt4pairIddES2_EEvRSt6vectorIT_SaIS4_EERKT0_
FNDA:229,_ZN10tsp_solver8tsp_2optISt4pairIddES1_IS2_S2_EEEvRSt6vectorIT0_SaIS5_EERKN5boost8optionalIT_EE
FNDA:353,_ZN10tsp_solver17nearest_neighbourIN5boost8geometry5model10linestringINS3_2d28point_xyIdNS2_2cs9cartesianEEESt6vectorSaEES9_EEvRSA_IT_SaISC_EERKT0_
FNDA:321,_ZN10tsp_solver8tsp_2optIN5boost8geometry5model2d28point_xyIdNS2_2cs9cartesianEEENS3_10linestringIS8_St6vectorSaEEEEvRSA_IT0_SaISC_EERKNS1_8optionalIT_EE
FNDA:0,_ZN10tsp_solver3getERKSt4pairIddENS_4SideE
FNDA:0,_ZN10tsp_solver7reverseERSt4pairIddE
FNDA:245,_ZN10tsp_solver17nearest_neighbourISt4pairIS1_IddES2_ES2_EEvRSt6vectorIT_SaIS5_EERKT0_
FNDA:4,_ZN10tsp_solver8tsp_2optISt4pairIddES2_EEvRSt6vectorIT0_SaIS4_EERKN5boost8optionalIT_EE
FNDA:0,_ZN10tsp_solver8distanceIdEEdRKSt4pairIT_S2_ES5_
FNF:9
FNH:6
DA:38,0
DA:39,162229
DA:40,162229
DA:43,0
DA:44,0
DA:45,0
DA:61,226946
DA:62,123987
DA:64,102959
DA:69,8442
DA:75,9905358
DA:77,8880790
DA:83,180780
DA:89,0
DA:91,383323
DA:92,538324
DA:100,28136985
DA:101,28136985
DA:112,604
DA:113,604
DA:114,2970
DA:115,1437
DA:118,594
DA:121,594
DA:123,594
DA:126,1533
DA:127,30486
DA:128,49869
DA:130,594
DA:131,11350
DA:132,27536
DA:133,10162
DA:136,432101
DA:137,1196652
DA:138,411777
DA:139,421995
DA:140,141577
DA:144,10162
DA:145,20324
DA:146,20324
DA:147,17374
DA:150,594
DA:151,386
DA:153,604
DA:157,554
DA:159,1108
DA:160,554
DA:161,1841
DA:163,43802
DA:164,4682054
DA:166,4547992
DA:167,4635648
DA:168,6749340
DA:169,4547992
DA:170,6953472
DA:171,5758138
DA:172,5683089
DA:173,5404016
DA:174,5394681
DA:176,2317824
DA:178,14016
DA:179,21024
DA:180,196230
DA:181,189222
DA:183,7008
DA:184,765
DA:189,554
DA:193,1106
DA:198,2
LF:69
LH:64
end_of_record
TN:
SF:/home/eyalsoha/private/pcb2gcode/unique_codes.hpp
FN:32,_ZN11uniqueCodes13getUniqueCodeEv
FNDA:0,_ZN11uniqueCodes13getUniqueCodeEv
FNF:1
FNH:0
DA:26,634
DA:27,634
DA:32,0
DA:34,1179
LF:4
LH:3
end_of_record
TN:
SF:/home/eyalsoha/private/pcb2gcode/units.hpp
FN:21,_ZN21units_parse_exceptionC2ERKNSt7__cxx1112basic_stringIcSt11char_traitsIcESaIcEEES7_
FN:24,_ZN21units_parse_exceptionC2ERKNSt7__cxx1112basic_stringIcSt11char_traitsIcESaIcEEE
FN:28,_ZNK21units_parse_exception4whatEv
FN:37,_ZN20comparison_exceptionC2ERKNSt7__cxx1112basic_stringIcSt11char_traitsIcESaIcEEE
FN:41,_ZNK20comparison_exception4whatEv
FN:57,_ZN5Lexer8get_wordB5cxx11Ev
FN:61,_ZN5Lexer10get_doubleEv
FN:63,_ZZN5Lexer10get_doubleEvENKUliE_clEi
FN:72,_ZN5Lexer12get_divisionEv
FN:78,_ZN5Lexer11get_percentEv
FN:93,_ZN5Lexer10get_stringIbEENSt7__cxx1112basic_stringIcSt11char_traitsIcESaIcEEEPFT_iE
FN:93,_ZN5Lexer10get_stringIiEENSt7__cxx1112basic_stringIcSt11char_traitsIcESaIcEEEPFT_iE
FN:102,_ZN5Lexer9get_exactERKNSt7__cxx1112basic_stringIcSt11char_traitsIcESaIcEEE
FN:130,_ZlsRSoRK8UnitBaseIN5boost5units4unitINS2_4listINS2_3dimI22percent_base_dimensionNS2_15static_rationalILl1ELl1EEEEENS2_18dimensionless_typeEEENS2_20heterogeneous_systemINS2_25heterogeneous_system_implINS4_INS2_24heterogeneous_system_dimI17percent_base_unitS8_EESA_EESB_SA_EEEEvEEE
FN:130,_ZlsRSoRK8UnitBaseIN5boost5units4unitINS2_4listINS2_3dimINS2_21length_base_dimensionENS2_15static_rationalILl1ELl1EEEEENS2_18dimensionless_typeEEENS2_18homogeneous_systemINS4_INS2_2si15meter_base_unitENS4_INS2_16scaled_base_unitINS2_3cgs14gram_base_unitENS2_5scaleILl10ENS7_ILl3ELl1EEEEEEENS4_INSD_16second_base_unitENS4_INSD_16ampere_base_unitENS4_INSD_16kelvin_base_unitENS4_INSD_14mole_base_unitENS4_INSD_17candela_base_unitENS4_INS2_5angle16radian_base_unitENS4_INSR_19steradian_base_unitESA_EEEEEEEEEEEEEEEEEEEEvEEE
FN:138,_ZNK8UnitBaseIN5boost5units4unitINS1_4listINS1_3dimI22percent_base_dimensionNS1_15static_rationalILl1ELl1EEEEENS1_18dimensionless_typeEEENS1_20heterogeneous_systemINS1_25heterogeneous_system_implINS3_INS1_24heterogeneous_system_dimI17percent_base_unitS7_EES9_EESA_S9_EEEEvEEEltERKSK_
FN:138,_ZNK8UnitBaseIN5boost5units4unitINS1_4listINS1_3dimINS1_21length_base_dimensionENS1_15static_rationalILl1ELl1EEEEENS1_18dimensionless_typeEEENS1_18homogeneous_systemINS3_INS1_2si15meter_base_unitENS3_INS1_16scaled_base_unitINS1_3cgs14gram_base_unitENS1_5scaleILl10ENS6_ILl3ELl1EEEEEEENS3_INSC_16second_base_unitENS3_INSC_16ampere_base_unitENS3_INSC_16kelvin_base_unitENS3_INSC_14mole_base_unitENS3_INSC_17candela_base_unitENS3_INS1_5angle16radian_base_unitENS3_INSQ_19steradian_base_unitES9_EEEEEEEEEEEEEEEEEEEEvEEEltERKS14_
FN:154,_ZNK8UnitBaseIN5boost5units4unitINS1_4listINS1_3dimINS1_21length_base_dimensionENS1_15static_rationalILl1ELl1EEEEENS1_18dimensionless_typeEEENS1_18homogeneous_systemINS3_INS1_2si15meter_base_unitENS3_INS1_16scaled_base_unitINS1_3cgs14gram_base_unitENS1_5scaleILl10ENS6_ILl3ELl1EEEEEEENS3_INSC_16second_base_unitENS3_INSC_16ampere_base_unitENS3_INSC_16kelvin_base_unitENS3_INSC_14mole_base_unitENS3_INSC_17candela_base_unitENS3_INS1_5angle16radian_base_unitENS3_INSQ_19steradian_base_unitES9_EEEEEEEEEEEEEEEEEEEEvEEEeqERKS14_
FN:154,_ZNK8UnitBaseIN5boost5units4unitINS1_4listINS1_3dimI22percent_base_dimensionNS1_15static_rationalILl1ELl1EEEEENS1_18dimensionless_typeEEENS1_20heterogeneous_systemINS1_25heterogeneous_system_implINS3_INS1_24heterogeneous_system_dimI17percent_base_unitS7_EES9_EESA_S9_EEEEvEEEeqERKSK_
FN:237,_ZN4UnitIN5boost5units4unitINS1_4listINS1_3dimINS1_21length_base_dimensionENS1_15static_rationalILl1ELl1EEEEENS1_18dimensionless_typeEEENS1_18homogeneous_systemINS3_INS1_2si15meter_base_unitENS3_INS1_16scaled_base_unitINS1_3cgs14gram_base_unitENS1_5scaleILl10ENS6_ILl3ELl1EEEEEEENS3_INSC_16second_base_unitENS3_INSC_16ampere_base_unitENS3_INSC_16kelvin_base_unitENS3_INSC_14mole_base_unitENS3_INSC_17candela_base_unitENS3_INS1_5angle16radian_base_unitENS3_INSQ_19steradian_base_unitES9_EEEEEEEEEEEEEEEEEEEEvEEE8get_unitER5Lexer
FN:277,_ZN4UnitIN5boost5units4unitINS1_4listINS1_3dimINS1_19time_base_dimensionENS1_15static_rationalILl1ELl1EEEEENS1_18dimensionless_typeEEENS1_18homogeneous_systemINS3_INS1_2si15meter_base_unitENS3_INS1_16scaled_base_unitINS1_3cgs14gram_base_unitENS1_5scaleILl10ENS6_ILl3ELl1EEEEEEENS3_INSC_16second_base_unitENS3_INSC_16ampere_base_unitENS3_INSC_16kelvin_base_unitENS3_INSC_14mole_base_unitENS3_INSC_17candela_base_unitENS3_INS1_5angle16radian_base_unitENS3_INSQ_19steradian_base_unitES9_EEEEEEEEEEEEEEEEEEEEvEEE8get_unitER5Lexer
FN:307,_ZN4UnitIN5boost5units4unitINS1_4listINS1_3dimI25revolution_base_dimensionNS1_15static_rationalILl1ELl1EEEEENS1_18dimensionless_typeEEENS1_20heterogeneous_systemINS1_25heterogeneous_system_implINS3_INS1_24heterogeneous_system_dimI20revolution_base_unitS7_EES9_EESA_S9_EEEEvEEE8get_unitER5Lexer
FN:330,_ZN4UnitIN5boost5units4unitINS1_4listINS1_3dimINS1_21length_base_dimensionENS1_15static_rationalILl1ELl1EEEEENS3_INS4_INS1_19time_base_dimensionENS6_ILln1ELl1EEEEENS1_18dimensionless_typeEEEEENS1_18homogeneous_systemINS3_INS1_2si15meter_base_unitENS3_INS1_16scaled_base_unitINS1_3cgs14gram_base_unitENS1_5scaleILl10ENS6_ILl3ELl1EEEEEEENS3_INSG_16second_base_unitENS3_INSG_16ampere_base_unitENS3_INSG_16kelvin_base_unitENS3_INSG_14mole_base_unitENS3_INSG_17candela_base_unitENS3_INS1_5angle16radian_base_unitENS3_INSU_19steradian_base_unitESC_EEEEEEEEEEEEEEEEEEEEvEEE8get_unitER5Lexer
FN:355,_ZN4UnitIN5boost5units4unitINS1_4listINS1_3dimI18rpm_base_dimensionNS1_15static_rationalILl1ELl1EEEEENS1_18dimensionless_typeEEENS1_20heterogeneous_systemINS1_25heterogeneous_system_implINS3_INS1_24heterogeneous_system_dimI13rpm_base_unitS7_EES9_EESA_S9_EEEEvEEE8get_unitER5Lexer
FN:406,_Z10parse_unitI4UnitIN5boost5units4unitINS2_4listINS2_3dimI25revolution_base_dimensionNS2_15static_rationalILl1ELl1EEEEENS2_18dimensionless_typeEEENS2_20heterogeneous_systemINS2_25heterogeneous_system_implINS4_INS2_24heterogeneous_system_dimI20revolution_base_unitS8_EESA_EESB_SA_EEEEvEEEET_RKNSt7__cxx1112basic_stringIcSt11char_traitsIcESaIcEEE
FN:406,_Z10parse_unitI4UnitIN5boost5units4unitINS2_4listINS2_3dimINS2_19time_base_dimensionENS2_15static_rationalILl1ELl1EEEEENS2_18dimensionless_typeEEENS2_18homogeneous_systemINS4_INS2_2si15meter_base_unitENS4_INS2_16scaled_base_unitINS2_3cgs14gram_base_unitENS2_5scaleILl10ENS7_ILl3ELl1EEEEEEENS4_INSD_16second_base_unitENS4_INSD_16ampere_base_unitENS4_INSD_16kelvin_base_unitENS4_INSD_14mole_base_unitENS4_INSD_17candela_base_unitENS4_INS2_5angle16radian_base_unitENS4_INSR_19steradian_base_unitESA_EEEEEEEEEEEEEEEEEEEEvEEEET_RKNSt7__cxx1112basic_stringIcSt11char_traitsIcESaIcEEE
FN:406,_Z10parse_unitI4UnitIN5boost5units4unitINS2_4listINS2_3dimI22percent_base_dimensionNS2_15static_rationalILl1ELl1EEEEENS2_18dimensionless_typeEEENS2_20heterogeneous_systemINS2_25heterogeneous_system_implINS4_INS2_24heterogeneous_system_dimI17percent_base_unitS8_EESA_EESB_SA_EEEEvEEEET_RKNSt7__cxx1112basic_stringIcSt11char_traitsIcESaIcEEE
FN:406,_Z10parse_unitI4UnitIN5boost5units4unitINS2_4listINS2_3dimINS2_21length_base_dimensionENS2_15static_rationalILl1ELl1EEEEENS4_INS5_INS2_19time_base_dimensionENS7_ILln1ELl1EEEEENS2_18dimensionless_typeEEEEENS2_18homogeneous_systemINS4_INS2_2si15meter_base_unitENS4_INS2_16scaled_base_unitINS2_3cgs14gram_base_unitENS2_5scaleILl10ENS7_ILl3ELl1EEEEEEENS4_INSH_16second_base_unitENS4_INSH_16ampere_base_unitENS4_INSH_16kelvin_base_unitENS4_INSH_14mole_base_unitENS4_INSH_17candela_base_unitENS4_INS2_5angle16radian_base_unitENS4_INSV_19steradian_base_unitESD_EEEEEEEEEEEEEEEEEEEEvEEEET_RKNSt7__cxx1112basic_stringIcSt11char_traitsIcESaIcEEE
FN:406,_Z10parse_unitI4UnitIN5boost5units4unitINS2_4listINS2_3dimI18rpm_base_dimensionNS2_15static_rationalILl1ELl1EEEEENS2_18dimensionless_typeEEENS2_20heterogeneous_systemINS2_25heterogeneous_system_implINS4_INS2_24heterogeneous_system_dimI13rpm_base_unitS8_EESA_EESB_SA_EEEEvEEEET_RKNSt7__cxx1112basic_stringIcSt11char_traitsIcESaIcEEE
FN:406,_Z10parse_unitI4UnitIN5boost5units4unitINS2_4listINS2_3dimINS2_21length_base_dimensionENS2_15static_rationalILl1ELl1EEEEENS2_18dimensionless_typeEEENS2_18homogeneous_systemINS4_INS2_2si15meter_base_unitENS4_INS2_16scaled_base_unitINS2_3cgs14gram_base_unitENS2_5scaleILl10ENS7_ILl3ELl1EEEEEEENS4_INSD_16second_base_unitENS4_INSD_16ampere_base_unitENS4_INSD_16kelvin_base_unitENS4_INSD_14mole_base_unitENS4_INSD_17candela_base_unitENS4_INS2_5angle16radian_base_unitENS4_INSR_19steradian_base_unitESA_EEEEEEEEEEEEEEEEEEEEvEEEET_RKNSt7__cxx1112basic_stringIcSt11char_traitsIcESaIcEEE
FN:427,_ZrsIN5boost5units4unitINS1_4listINS1_3dimINS1_19time_base_dimensionENS1_15static_rationalILl1ELl1EEEEENS1_18dimensionless_typeEEENS1_18homogeneous_systemINS3_INS1_2si15meter_base_unitENS3_INS1_16scaled_base_unitINS1_3cgs14gram_base_unitENS1_5scaleILl10ENS6_ILl3ELl1EEEEEEENS3_INSC_16second_base_unitENS3_INSC_16ampere_base_unitENS3_INSC_16kelvin_base_unitENS3_INSC_14mole_base_unitENS3_INSC_17candela_base_unitENS3_INS1_5angle16radian_base_unitENS3_INSQ_19steradian_base_unitES9_EEEEEEEEEEEEEEEEEEEEvEEERSiS14_R4UnitIT_E
FN:427,_ZrsIN5boost5units4unitINS1_4listINS1_3dimINS1_21length_base_dimensionENS1_15static_rationalILl1ELl1EEEEENS1_18dimensionless_typeEEENS1_18homogeneous_systemINS3_INS1_2si15meter_base_unitENS3_INS1_16scaled_base_unitINS1_3cgs14gram_base_unitENS1_5scaleILl10ENS6_ILl3ELl1EEEEEEENS3_INSC_16second_base_unitENS3_INSC_16ampere_base_unitENS3_INSC_16kelvin_base_unitENS3_INSC_14mole_base_unitENS3_INSC_17candela_base_unitENS3_INS1_5angle16radian_base_unitENS3_INSQ_19steradian_base_unitES9_EEEEEEEEEEEEEEEEEEEEvEEERSiS14_R4UnitIT_E
FN:427,_ZrsIN5boost5units4unitINS1_4listINS1_3dimI18rpm_base_dimensionNS1_15static_rationalILl1ELl1EEEEENS1_18dimensionless_typeEEENS1_20heterogeneous_systemINS1_25heterogeneous_system_implINS3_INS1_24heterogeneous_system_dimI13rpm_base_unitS7_EES9_EESA_S9_EEEEvEEERSiSK_R4UnitIT_E
FN:427,_ZrsIN5boost5units4unitINS1_4listINS1_3dimI25revolution_base_dimensionNS1_15static_rationalILl1ELl1EEEEENS1_18dimensionless_typeEEENS1_20heterogeneous_systemINS1_25heterogeneous_system_implINS3_INS1_24heterogeneous_system_dimI20revolution_base_unitS7_EES9_EESA_S9_EEEEvEEERSiSK_R4UnitIT_E
FN:427,_ZrsIN5boost5units4unitINS1_4listINS1_3dimINS1_21length_base_dimensionENS1_15static_rationalILl1ELl1EEEEENS3_INS4_INS1_19time_base_dimensionENS6_ILln1ELl1EEEEENS1_18dimensionless_typeEEEEENS1_18homogeneous_systemINS3_INS1_2si15meter_base_unitENS3_INS1_16scaled_base_unitINS1_3cgs14gram_base_unitENS1_5scaleILl10ENS6_ILl3ELl1EEEEEEENS3_INSG_16second_base_unitENS3_INSG_16ampere_base_unitENS3_INSG_16kelvin_base_unitENS3_INSG_14mole_base_unitENS3_INSG_17candela_base_unitENS3_INS1_5angle16radian_base_unitENS3_INSU_19steradian_base_unitESC_EEEEEEEEEEEEEEEEEEEEvEEERSiS18_R4UnitIT_E
FN:465,_ZNK14CommaSeparatedI14AvailableDrillE5writeERSo
FN:465,_ZNK14CommaSeparatedI4UnitIN5boost5units4unitINS2_4listINS2_3dimINS2_21length_base_dimensionENS2_15static_rationalILl1ELl1EEEEENS2_18dimensionless_typeEEENS2_18homogeneous_systemINS4_INS2_2si15meter_base_unitENS4_INS2_16scaled_base_unitINS2_3cgs14gram_base_unitENS2_5scaleILl10ENS7_ILl3ELl1EEEEEEENS4_INSD_16second_base_unitENS4_INSD_16ampere_base_unitENS4_INSD_16kelvin_base_unitENS4_INSD_14mole_base_unitENS4_INSD_17candela_base_unitENS4_INS2_5angle16radian_base_unitENS4_INSR_19steradian_base_unitESA_EEEEEEEEEEEEEEEEEEEEvEEEE5writeERSo
FN:474,_ZN14CommaSeparatedI14AvailableDrillE4readERSi
FN:500,_ZlsI4UnitIN5boost5units4unitINS2_4listINS2_3dimINS2_21length_base_dimensionENS2_15static_rationalILl1ELl1EEEEENS2_18dimensionless_typeEEENS2_18homogeneous_systemINS4_INS2_2si15meter_base_unitENS4_INS2_16scaled_base_unitINS2_3cgs14gram_base_unitENS2_5scaleILl10ENS7_ILl3ELl1EEEEEEENS4_INSD_16second_base_unitENS4_INSD_16ampere_base_unitENS4_INSD_16kelvin_base_unitENS4_INSD_14mole_base_unitENS4_INSD_17candela_base_unitENS4_INS2_5angle16radian_base_unitENS4_INSR_19steradian_base_unitESA_EEEEEEEEEEEEEEEEEEEEvEEEERSoS16_RKSt6vectorI14CommaSeparatedIT_ESaIS1A_EE
FN:500,_ZlsI14AvailableDrillERSoS1_RKSt6vectorI14CommaSeparatedIT_ESaIS5_EE
FN:512,_Z7flattenI14AvailableDrillESt6vectorIT_SaIS2_EERKS1_I14CommaSeparatedIS2_ESaIS6_EE
FN:578,_ZN8SoftwarelsERSoRKNS_8SoftwareE
FN:605,_ZN17MillFeedDirectionrsERSiRNS_17MillFeedDirectionE
FNDA:5358,_ZN5Lexer10get_doubleEv
FNDA:0,_ZN8SoftwarelsERSoRKNS_8SoftwareE
FNDA:2772,_ZN5Lexer8get_wordB5cxx11Ev
FNDA:640,_ZNK8UnitBaseIN5boost5units4unitINS1_4listINS1_3dimINS1_21length_base_dimensionENS1_15static_rationalILl1ELl1EEEEENS1_18dimensionless_typeEEENS1_18homogeneous_systemINS3_INS1_2si15meter_base_unitENS3_INS1_16scaled_base_unitINS1_3cgs14gram_base_unitENS1_5scaleILl10ENS6_ILl3ELl1EEEEEEENS3_INSC_16second_base_unitENS3_INSC_16ampere_base_unitENS3_INSC_16kelvin_base_unitENS3_INSC_14mole_base_unitENS3_INSC_17candela_base_unitENS3_INS1_5angle16radian_base_unitENS3_INSQ_19steradian_base_unitES9_EEEEEEEEEEEEEEEEEEEEvEEEltERKS14_
FNDA:11,_ZN4UnitIN5boost5units4unitINS1_4listINS1_3dimI25revolution_base_dimensionNS1_15static_rationalILl1ELl1EEEEENS1_18dimensionless_typeEEENS1_20heterogeneous_systemINS1_25heterogeneous_system_implINS3_INS1_24heterogeneous_system_dimI20revolution_base_unitS7_EES9_EESA_S9_EEEEvEEE8get_unitER5Lexer
FNDA:0,_ZNK14CommaSeparatedI4UnitIN5boost5units4unitINS2_4listINS2_3dimINS2_21length_base_dimensionENS2_15static_rationalILl1ELl1EEEEENS2_18dimensionless_typeEEENS2_18homogeneous_systemINS4_INS2_2si15meter_base_unitENS4_INS2_16scaled_base_unitINS2_3cgs14gram_base_unitENS2_5scaleILl10ENS7_ILl3ELl1EEEEEEENS4_INSD_16second_base_unitENS4_INSD_16ampere_base_unitENS4_INSD_16kelvin_base_unitENS4_INSD_14mole_base_unitENS4_INSD_17candela_base_unitENS4_INS2_5angle16radian_base_unitENS4_INSR_19steradian_base_unitESA_EEEEEEEEEEEEEEEEEEEEvEEEE5writeERSo
FNDA:9,_ZN5Lexer12get_divisionEv
FNDA:18,_ZlsRSoRK8UnitBaseIN5boost5units4unitINS2_4listINS2_3dimINS2_21length_base_dimensionENS2_15static_rationalILl1ELl1EEEEENS2_18dimensionless_typeEEENS2_18homogeneous_systemINS4_INS2_2si15meter_base_unitENS4_INS2_16scaled_base_unitINS2_3cgs14gram_base_unitENS2_5scaleILl10ENS7_ILl3ELl1EEEEEEENS4_INSD_16second_base_unitENS4_INSD_16ampere_base_unitENS4_INSD_16kelvin_base_unitENS4_INSD_14mole_base_unitENS4_INSD_17candela_base_unitENS4_INS2_5angle16radian_base_unitENS4_INSR_19steradian_base_unitESA_EEEEEEEEEEEEEEEEEEEEvEEE
FNDA:2956,_Z10parse_unitI4UnitIN5boost5units4unitINS2_4listINS2_3dimINS2_21length_base_dimensionENS2_15static_rationalILl1ELl1EEEEENS2_18dimensionless_typeEEENS2_18homogeneous_systemINS4_INS2_2si15meter_base_unitENS4_INS2_16scaled_base_unitINS2_3cgs14gram_base_unitENS2_5scaleILl10ENS7_ILl3ELl1EEEEEEENS4_INSD_16second_base_unitENS4_INSD_16ampere_base_unitENS4_INSD_16kelvin_base_unitENS4_INSD_14mole_base_unitENS4_INSD_17candela_base_unitENS4_INS2_5angle16radian_base_unitENS4_INSR_19steradian_base_unitESA_EEEEEEEEEEEEEEEEEEEEvEEEET_RKNSt7__cxx1112basic_stringIcSt11char_traitsIcESaIcEEE
FNDA:2,_ZNK8UnitBaseIN5boost5units4unitINS1_4listINS1_3dimI22percent_base_dimensionNS1_15static_rationalILl1ELl1EEEEENS1_18dimensionless_typeEEENS1_20heterogeneous_systemINS1_25heterogeneous_system_implINS3_INS1_24heterogeneous_system_dimI17percent_base_unitS7_EES9_EESA_S9_EEEEvEEEeqERKSK_
FNDA:2,_ZN20comparison_exceptionC2ERKNSt7__cxx1112basic_stringIcSt11char_traitsIcESaIcEEE
FNDA:36,_ZNK21units_parse_exception4whatEv
FNDA:11,_Z10parse_unitI4UnitIN5boost5units4unitINS2_4listINS2_3dimI18rpm_base_dimensionNS2_15static_rationalILl1ELl1EEEEENS2_18dimensionless_typeEEENS2_20heterogeneous_systemINS2_25heterogeneous_system_implINS4_INS2_24heterogeneous_system_dimI13rpm_base_unitS8_EESA_EESB_SA_EEEEvEEEET_RKNSt7__cxx1112basic_stringIcSt11char_traitsIcESaIcEEE
FNDA:6,_ZN17MillFeedDirectionrsERSiRNS_17MillFeedDirectionE
FNDA:34,_ZN21units_parse_exceptionC2ERKNSt7__cxx1112basic_stringIcSt11char_traitsIcESaIcEEES7_
FNDA:15,_ZN4UnitIN5boost5units4unitINS1_4listINS1_3dimINS1_19time_base_dimensionENS1_15static_rationalILl1ELl1EEEEENS1_18dimensionless_typeEEENS1_18homogeneous_systemINS3_INS1_2si15meter_base_unitENS3_INS1_16scaled_base_unitINS1_3cgs14gram_base_unitENS1_5scaleILl10ENS6_ILl3ELl1EEEEEEENS3_INSC_16second_base_unitENS3_INSC_16ampere_base_unitENS3_INSC_16kelvin_base_unitENS3_INSC_14mole_base_unitENS3_INSC_17candela_base_unitENS3_INS1_5angle16radian_base_unitENS3_INSQ_19steradian_base_unitES9_EEEEEEEEEEEEEEEEEEEEvEEE8get_unitER5Lexer
FNDA:4,_ZNK8UnitBaseIN5boost5units4unitINS1_4listINS1_3dimI22percent_base_dimensionNS1_15static_rationalILl1ELl1EEEEENS1_18dimensionless_typeEEENS1_20heterogeneous_systemINS1_25heterogeneous_system_implINS3_INS1_24heterogeneous_system_dimI17percent_base_unitS7_EES9_EESA_S9_EEEEvEEEltERKSK_
FNDA:1,_ZlsI14AvailableDrillERSoS1_RKSt6vectorI14CommaSeparatedIT_ESaIS5_EE
FNDA:0,_ZlsRSoRK8UnitBaseIN5boost5units4unitINS2_4listINS2_3dimI22percent_base_dimensionNS2_15static_rationalILl1ELl1EEEEENS2_18dimensionless_typeEEENS2_20heterogeneous_systemINS2_25heterogeneous_system_implINS4_INS2_24heterogeneous_system_dimI17percent_base_unitS8_EESA_EESB_SA_EEEEvEEE
FNDA:10,_ZrsIN5boost5units4unitINS1_4listINS1_3dimINS1_21length_base_dimensionENS1_15static_rationalILl1ELl1EEEEENS3_INS4_INS1_19time_base_dimensionENS6_ILln1ELl1EEEEENS1_18dimensionless_typeEEEEENS1_18homogeneous_systemINS3_INS1_2si15meter_base_unitENS3_INS1_16scaled_base_unitINS1_3cgs14gram_base_unitENS1_5scaleILl10ENS6_ILl3ELl1EEEEEEENS3_INSG_16second_base_unitENS3_INSG_16ampere_base_unitENS3_INSG_16kelvin_base_unitENS3_INSG_14mole_base_unitENS3_INSG_17candela_base_unitENS3_INS1_5angle16radian_base_unitENS3_INSU_19steradian_base_unitESC_EEEEEEEEEEEEEEEEEEEEvEEERSiS18_R4UnitIT_E
FNDA:9,_ZN4UnitIN5boost5units4unitINS1_4listINS1_3dimINS1_21length_base_dimensionENS1_15static_rationalILl1ELl1EEEEENS3_INS4_INS1_19time_base_dimensionENS6_ILln1ELl1EEEEENS1_18dimensionless_typeEEEEENS1_18homogeneous_systemINS3_INS1_2si15meter_base_unitENS3_INS1_16scaled_base_unitINS1_3cgs14gram_base_unitENS1_5scaleILl10ENS6_ILl3ELl1EEEEEEENS3_INSG_16second_base_unitENS3_INSG_16ampere_base_unitENS3_INSG_16kelvin_base_unitENS3_INSG_14mole_base_unitENS3_INSG_17candela_base_unitENS3_INS1_5angle16radian_base_unitENS3_INSU_19steradian_base_unitESC_EEEEEEEEEEEEEEEEEEEEvEEE8get_unitER5Lexer
FNDA:35,_ZNK8UnitBaseIN5boost5units4unitINS1_4listINS1_3dimINS1_21length_base_dimensionENS1_15static_rationalILl1ELl1EEEEENS1_18dimensionless_typeEEENS1_18homogeneous_systemINS3_INS1_2si15meter_base_unitENS3_INS1_16scaled_base_unitINS1_3cgs14gram_base_unitENS1_5scaleILl10ENS6_ILl3ELl1EEEEEEENS3_INSC_16second_base_unitENS3_INSC_16ampere_base_unitENS3_INSC_16kelvin_base_unitENS3_INSC_14mole_base_unitENS3_INSC_17candela_base_unitENS3_INS1_5angle16radian_base_unitENS3_INSQ_19steradian_base_unitES9_EEEEEEEEEEEEEEEEEEEEvEEEeqERKS14_
FNDA:10,_ZN14CommaSeparatedI14AvailableDrillE4readERSi
FNDA:5,_Z10parse_unitI4UnitIN5boost5units4unitINS2_4listINS2_3dimI22percent_base_dimensionNS2_15static_rationalILl1ELl1EEEEENS2_18dimensionless_typeEEENS2_20heterogeneous_systemINS2_25heterogeneous_system_implINS4_INS2_24heterogeneous_system_dimI17percent_base_unitS8_EESA_EESB_SA_EEEEvEEEET_RKNSt7__cxx1112basic_stringIcSt11char_traitsIcESaIcEEE
FNDA:2739,_ZN4UnitIN5boost5units4unitINS1_4listINS1_3dimINS1_21length_base_dimensionENS1_15static_rationalILl1ELl1EEEEENS1_18dimensionless_typeEEENS1_18homogeneous_systemINS3_INS1_2si15meter_base_unitENS3_INS1_16scaled_base_unitINS1_3cgs14gram_base_unitENS1_5scaleILl10ENS6_ILl3ELl1EEEEEEENS3_INSC_16second_base_unitENS3_INSC_16ampere_base_unitENS3_INSC_16kelvin_base_unitENS3_INSC_14mole_base_unitENS3_INSC_17candela_base_unitENS3_INS1_5angle16radian_base_unitENS3_INSQ_19steradian_base_unitES9_EEEEEEEEEEEEEEEEEEEEvEEE8get_unitER5Lexer
FNDA:104,_Z7flattenI14AvailableDrillESt6vectorIT_SaIS2_EERKS1_I14CommaSeparatedIS2_ESaIS6_EE
FNDA:10,_Z10parse_unitI4UnitIN5boost5units4unitINS2_4listINS2_3dimINS2_21length_base_dimensionENS2_15static_rationalILl1ELl1EEEEENS4_INS5_INS2_19time_base_dimensionENS7_ILln1ELl1EEEEENS2_18dimensionless_typeEEEEENS2_18homogeneous_systemINS4_INS2_2si15meter_base_unitENS4_INS2_16scaled_base_unitINS2_3cgs14gram_base_unitENS2_5scaleILl10ENS7_ILl3ELl1EEEEEEENS4_INSH_16second_base_unitENS4_INSH_16ampere_base_unitENS4_INSH_16kelvin_base_unitENS4_INSH_14mole_base_unitENS4_INSH_17candela_base_unitENS4_INS2_5angle16radian_base_unitENS4_INSV_19steradian_base_unitESD_EEEEEEEEEEEEEEEEEEEEvEEEET_RKNSt7__cxx1112basic_stringIcSt11char_traitsIcESaIcEEE
FNDA:17,_ZN5Lexer9get_exactERKNSt7__cxx1112basic_stringIcSt11char_traitsIcESaIcEEE
FNDA:0,_ZZN5Lexer10get_doubleEvENKUliE_clEi
FNDA:10,_ZrsIN5boost5units4unitINS1_4listINS1_3dimI25revolution_base_dimensionNS1_15static_rationalILl1ELl1EEEEENS1_18dimensionless_typeEEENS1_20heterogeneous_systemINS1_25heterogeneous_system_implINS3_INS1_24heterogeneous_system_dimI20revolution_base_unitS7_EES9_EESA_S9_EEEEvEEERSiSK_R4UnitIT_E
FNDA:7,_ZNK14CommaSeparatedI14AvailableDrillE5writeERSo
FNDA:0,_ZlsI4UnitIN5boost5units4unitINS2_4listINS2_3dimINS2_21length_base_dimensionENS2_15static_rationalILl1ELl1EEEEENS2_18dimensionless_typeEEENS2_18homogeneous_systemINS4_INS2_2si15meter_base_unitENS4_INS2_16scaled_base_unitINS2_3cgs14gram_base_unitENS2_5scaleILl10ENS7_ILl3ELl1EEEEEEENS4_INSD_16second_base_unitENS4_INSD_16ampere_base_unitENS4_INSD_16kelvin_base_unitENS4_INSD_14mole_base_unitENS4_INSD_17candela_base_unitENS4_INS2_5angle16radian_base_unitENS4_INSR_19steradian_base_unitESA_EEEEEEEEEEEEEEEEEEEEvEEEERSoS16_RKSt6vectorI14CommaSeparatedIT_ESaIS1A_EE
FNDA:7,_ZN4UnitIN5boost5units4unitINS1_4listINS1_3dimI18rpm_base_dimensionNS1_15static_rationalILl1ELl1EEEEENS1_18dimensionless_typeEEENS1_20heterogeneous_systemINS1_25heterogeneous_system_implINS3_INS1_24heterogeneous_system_dimI13rpm_base_unitS7_EES9_EESA_S9_EEEEvEEE8get_unitER5Lexer
FNDA:5358,_ZN5Lexer10get_stringIbEENSt7__cxx1112basic_stringIcSt11char_traitsIcESaIcEEEPFT_iE
FNDA:0,_ZNK20comparison_exception4whatEv
FNDA:11,_ZrsIN5boost5units4unitINS1_4listINS1_3dimINS1_19time_base_dimensionENS1_15static_rationalILl1ELl1EEEEENS1_18dimensionless_typeEEENS1_18homogeneous_systemINS3_INS1_2si15meter_base_unitENS3_INS1_16scaled_base_unitINS1_3cgs14gram_base_unitENS1_5scaleILl10ENS6_ILl3ELl1EEEEEEENS3_INSC_16second_base_unitENS3_INSC_16ampere_base_unitENS3_INSC_16kelvin_base_unitENS3_INSC_14mole_base_unitENS3_INSC_17candela_base_unitENS3_INS1_5angle16radian_base_unitENS3_INSQ_19steradian_base_unitES9_EEEEEEEEEEEEEEEEEEEEvEEERSiS14_R4UnitIT_E
FNDA:5,_ZN5Lexer11get_percentEv
FNDA:10,_Z10parse_unitI4UnitIN5boost5units4unitINS2_4listINS2_3dimI25revolution_base_dimensionNS2_15static_rationalILl1ELl1EEEEENS2_18dimensionless_typeEEENS2_20heterogeneous_systemINS2_25heterogeneous_system_implINS4_INS2_24heterogeneous_system_dimI20revolution_base_unitS8_EESA_EESB_SA_EEEEvEEEET_RKNSt7__cxx1112basic_stringIcSt11char_traitsIcESaIcEEE
FNDA:11,_ZrsIN5boost5units4unitINS1_4listINS1_3dimI18rpm_base_dimensionNS1_15static_rationalILl1ELl1EEEEENS1_18dimensionless_typeEEENS1_20heterogeneous_systemINS1_25heterogeneous_system_implINS3_INS1_24heterogeneous_system_dimI13rpm_base_unitS7_EES9_EESA_S9_EEEEvEEERSiSK_R4UnitIT_E
FNDA:17,_ZrsIN5boost5units4unitINS1_4listINS1_3dimINS1_21length_base_dimensionENS1_15static_rationalILl1ELl1EEEEENS1_18dimensionless_typeEEENS1_18homogeneous_systemINS3_INS1_2si15meter_base_unitENS3_INS1_16scaled_base_unitINS1_3cgs14gram_base_unitENS1_5scaleILl10ENS6_ILl3ELl1EEEEEEENS3_INSC_16second_base_unitENS3_INSC_16ampere_base_unitENS3_INSC_16kelvin_base_unitENS3_INSC_14mole_base_unitENS3_INSC_17candela_base_unitENS3_INS1_5angle16radian_base_unitENS3_INSQ_19steradian_base_unitES9_EEEEEEEEEEEEEEEEEEEEvEEERSiS14_R4UnitIT_E
FNDA:25667,_ZN5Lexer10get_stringIiEENSt7__cxx1112basic_stringIcSt11char_traitsIcESaIcEEEPFT_iE
FNDA:2,_ZN21units_parse_exceptionC2ERKNSt7__cxx1112basic_stringIcSt11char_traitsIcESaIcEEE
FNDA:11,_Z10parse_unitI4UnitIN5boost5units4unitINS2_4listINS2_3dimINS2_19time_base_dimensionENS2_15static_rationalILl1ELl1EEEEENS2_18dimensionless_typeEEENS2_18homogeneous_systemINS4_INS2_2si15meter_base_unitENS4_INS2_16scaled_base_unitINS2_3cgs14gram_base_unitENS2_5scaleILl10ENS7_ILl3ELl1EEEEEEENS4_INSD_16second_base_unitENS4_INSD_16ampere_base_unitENS4_INSD_16kelvin_base_unitENS4_INSD_14mole_base_unitENS4_INSD_17candela_base_unitENS4_INS2_5angle16radian_base_unitENS4_INSR_19steradian_base_unitESA_EEEEEEEEEEEEEEEEEEEEvEEEET_RKNSt7__cxx1112basic_stringIcSt11char_traitsIcESaIcEEE
FNF:43
FNH:37
DA:21,68
DA:22,34
DA:23,34
DA:24,4
DA:25,2
DA:26,2
DA:28,36
DA:30,72
DA:37,4
DA:38,2
DA:39,2
DA:41,0
DA:43,2
DA:51,6006
DA:53,3003
DA:55,14109
DA:57,2772
DA:58,2772
DA:59,2772
DA:61,5358
DA:62,5358
DA:63,5358
DA:64,0
DA:65,5365
DA:66,5358
DA:67,5358
DA:68,14
DA:69,7
DA:72,9
DA:73,9
DA:74,22
DA:75,2
DA:77,7
DA:78,5
DA:79,5
DA:80,10
DA:81,1
DA:83,4
DA:86,5965
DA:93,31025
DA:94,31025
DA:95,62677
DA:96,31652
DA:98,31025
DA:102,17
DA:103,17
DA:104,11
DA:105,11
DA:121,9034
DA:125,6184
DA:130,18
DA:131,36
DA:132,27
DA:134,9
DA:136,18
DA:138,644
DA:139,644
DA:140,1786
DA:142,506
DA:143,276
DA:144,2
DA:145,272
DA:146,810
DA:148,3
DA:152,334
DA:154,37
DA:155,37
DA:164,8854
DA:166,6432
DA:168,14176
DA:216,0
DA:217,2
DA:231,4042
DA:233,5217
DA:235,24791
DA:237,2739
DA:238,5478
DA:239,2739
DA:240,2739
DA:241,997
DA:242,1742
DA:244,997
DA:245,997
DA:246,996
DA:247,3
DA:249,996
DA:250,996
DA:251,34
DA:252,980
DA:254,16
DA:255,15
DA:256,31
DA:257,15
DA:258,1
DA:260,15
DA:263,8
DA:268,34
DA:270,55
DA:272,18
DA:277,15
DA:278,30
DA:279,15
DA:280,15
DA:281,13
DA:282,2
DA:284,13
DA:285,11
DA:286,24
DA:287,11
DA:288,2
DA:290,11
DA:291,6
DA:292,17
DA:293,5
DA:294,8
DA:296,3
DA:301,26
DA:303,48
DA:305,15
DA:307,11
DA:308,17
DA:309,11
DA:310,11
DA:311,10
DA:312,9
DA:313,9
DA:314,9
DA:315,19
DA:316,8
DA:317,10
DA:319,18
DA:324,34
DA:326,51
DA:328,78
DA:330,9
DA:332,9
DA:333,9
DA:334,9
DA:335,7
DA:336,5
DA:337,10
DA:345,8
DA:349,32
DA:351,54
DA:353,18
DA:355,7
DA:357,7
DA:358,14
DA:359,7
DA:360,6
DA:361,4
DA:363,5
DA:365,5
DA:366,5
DA:367,5
DA:368,2
DA:369,2
DA:370,2
DA:375,50
DA:377,8
DA:385,5
DA:386,4
DA:406,3003
DA:407,3003
DA:409,9044
DA:411,3003
DA:412,2996
DA:413,2996
DA:414,2067
DA:416,68
DA:417,68
DA:419,2969
DA:420,2969
DA:421,2
DA:423,10946
DA:427,59
DA:428,177
DA:429,96
DA:430,40
DA:450,67
DA:454,11
DA:455,22
DA:456,20
DA:463,8
DA:465,7
DA:466,41
DA:467,27
DA:468,2
DA:470,9
DA:472,7
DA:474,10
DA:475,14
DA:476,40
DA:477,14
DA:478,44
DA:479,161
DA:480,15
DA:481,7
DA:483,12
DA:491,10
DA:496,5
DA:500,1
DA:501,4
DA:502,6
DA:503,1
DA:505,2
DA:507,1
DA:512,104
DA:513,104
DA:514,328
DA:515,40
DA:517,104
DA:578,0
DA:580,0
DA:581,0
DA:582,0
DA:583,0
DA:584,0
DA:585,0
DA:586,0
DA:587,0
DA:588,0
DA:589,0
DA:590,0
DA:591,0
DA:592,0
DA:594,0
DA:605,6
DA:606,18
DA:607,17
DA:608,11
DA:609,2
DA:610,11
DA:611,11
DA:612,7
DA:613,2
DA:614,3
DA:615,1
DA:617,1
DA:619,6
LF:240
LH:222
end_of_record
TN:
SF:/home/eyalsoha/private/pcb2gcode/voronoi.cpp
FN:39,_ZN7Voronoi13build_voronoiERKN5boost8geometry5model13multi_polygonINS2_7polygonINS2_2d28point_xyIdNS1_2cs9cartesianEEELb1ELb1ESt6vectorSA_SaSaEESA_SaEERKNS2_3boxIS9_EEd
FN:67,_ZN7Voronoi13build_voronoiERKN5boost8geometry5model13multi_polygonINS2_7polygonINS2_2d28point_xyIlNS1_2cs9cartesianEEELb1ELb1ESt6vectorSA_SaSaEESA_SaEERKNS2_3boxIS9_EEl
FN:174,_ZN7Voronoi9same_polyERKN5boost7polygon12voronoi_edgeIdEES5_RKSt6vectorImSaImEE
FN:179,_ZN7Voronoi18edge_to_linestringERKN5boost7polygon12voronoi_edgeIdEERKSt6vectorINS1_12segment_dataIlEESaIS8_EERKNS0_8geometry5model3boxINSE_2d28point_xyIdNSD_2cs9cartesianEEEEEl
FN:215,_ZN7Voronoi9copy_ringERKN5boost8geometry5model4ringINS2_2d28point_xyIlNS1_2cs9cartesianEEELb1ELb1ESt6vectorSaEERS9_INS0_7polygon12segment_dataIlEESaISF_EE
FN:223,_ZN7Voronoi14retrieve_pointERKN5boost7polygon12voronoi_cellIdEERKSt6vectorINS1_12segment_dataIlEESaIS8_EE
FN:233,_ZN7Voronoi16retrieve_segmentERKN5boost7polygon12voronoi_cellIdEERKSt6vectorINS1_12segment_dataIlEESaIS8_EE
FN:238,_ZN7Voronoi18sample_curved_edgeEPKN5boost7polygon12voronoi_edgeIdEERKSt6vectorINS1_12segment_dataIlEESaIS8_EERS6_INS1_10point_dataIdEESaISE_EEd
FN:255,_ZN7Voronoi18clip_infinite_edgeERKN5boost7polygon12voronoi_edgeIdEERKSt6vectorINS1_12segment_dataIlEESaIS8_EEPS6_INS1_10point_dataIdEESaISE_EERKNS0_8geometry5model3boxINSJ_2d28point_xyIdNSI_2cs9cartesianEEEEE
FNDA:4161,_ZN7Voronoi9copy_ringERKN5boost8geometry5model4ringINS2_2d28point_xyIlNS1_2cs9cartesianEEELb1ELb1ESt6vectorSaEERS9_INS0_7polygon12segment_dataIlEESaISF_EE
FNDA:0,_ZN7Voronoi18clip_infinite_edgeERKN5boost7polygon12voronoi_edgeIdEERKSt6vectorINS1_12segment_dataIlEESaIS8_EEPS6_INS1_10point_dataIdEESaISE_EERKNS0_8geometry5model3boxINSJ_2d28point_xyIdNSI_2cs9cartesianEEEEE
FNDA:1555911,_ZN7Voronoi9same_polyERKN5boost7polygon12voronoi_edgeIdEES5_RKSt6vectorImSaImEE
FNDA:0,_ZN7Voronoi16retrieve_segmentERKN5boost7polygon12voronoi_cellIdEERKSt6vectorINS1_12segment_dataIlEESaIS8_EE
FNDA:0,_ZN7Voronoi14retrieve_pointERKN5boost7polygon12voronoi_cellIdEERKSt6vectorINS1_12segment_dataIlEESaIS8_EE
FNDA:317,_ZN7Voronoi13build_voronoiERKN5boost8geometry5model13multi_polygonINS2_7polygonINS2_2d28point_xyIlNS1_2cs9cartesianEEELb1ELb1ESt6vectorSA_SaSaEESA_SaEERKNS2_3boxIS9_EEl
FNDA:347408,_ZN7Voronoi18edge_to_linestringERKN5boost7polygon12voronoi_edgeIdEERKSt6vectorINS1_12segment_dataIlEESaIS8_EERKNS0_8geometry5model3boxINSE_2d28point_xyIdNSD_2cs9cartesianEEEEEl
FNDA:165634,_ZN7Voronoi18sample_curved_edgeEPKN5boost7polygon12voronoi_edgeIdEERKSt6vectorINS1_12segment_dataIlEESaIS8_EERS6_INS1_10point_dataIdEESaISE_EEd
FNDA:313,_ZN7Voronoi13build_voronoiERKN5boost8geometry5model13multi_polygonINS2_7polygonINS2_2d28point_xyIdNS1_2cs9cartesianEEELb1ELb1ESt6vectorSA_SaSaEESA_SaEERKNS2_3boxIS9_EEd
FNF:9
FNH:6
DA:39,313
DA:43,313
DA:44,939
DA:45,626
DA:48,313
DA:49,939
DA:50,626
DA:53,626
DA:54,313
DA:55,313
DA:56,313
DA:58,626
DA:60,313
DA:61,939
DA:62,313
DA:63,313
DA:64,626
DA:67,317
DA:70,634
DA:71,5
DA:75,312
DA:77,312
DA:80,624
DA:81,624
DA:82,624
DA:83,624
DA:84,624
DA:85,624
DA:87,312
DA:89,624
DA:90,5814
DA:91,4878
DA:92,11166
DA:93,1410
DA:95,4878
DA:100,624
DA:101,312
DA:102,312
DA:104,624
DA:105,936
DA:106,312
DA:107,312
DA:112,624
DA:114,624
DA:118,312
DA:119,1682202
DA:120,2787928
DA:121,1681266
DA:123,2192400
DA:124,2667716
DA:127,1682202
DA:128,3362532
DA:129,1678596
DA:132,2670
DA:133,2670
DA:134,5571
DA:135,347408
DA:136,694816
DA:138,1547064
DA:140,426124
DA:143,694816
DA:144,347408
DA:149,713976
DA:150,1871861
DA:152,449249
DA:153,733136
DA:155,347408
DA:157,5340
DA:159,5340
DA:160,13350
DA:161,2670
DA:163,4878
DA:166,693
DA:171,624
DA:174,1555911
DA:175,3111822
DA:176,6223644
DA:179,347408
DA:180,347408
DA:181,347408
DA:182,694816
DA:183,363548
DA:184,363548
DA:185,545322
DA:186,545322
DA:189,496902
DA:190,165634
DA:191,1316870
DA:192,819968
DA:197,0
DA:198,0
DA:199,0
DA:200,0
DA:201,0
DA:203,0
DA:204,0
DA:206,0
DA:207,0
DA:211,347408
DA:215,4161
DA:217,582958
DA:218,430977
DA:219,718295
DA:221,4161
DA:223,0
DA:224,165634
DA:225,0
DA:227,87835
DA:228,321596
DA:230,340940
DA:233,0
DA:234,165634
DA:235,331268
DA:238,165634
DA:241,331268
DA:242,77799
DA:243,253469
DA:245,331268
DA:246,155598
DA:247,175670
DA:249,331268
DA:250,662536
DA:252,165634
DA:253,165634
DA:255,0
DA:257,0
DA:258,0
DA:259,0
DA:261,0
DA:262,0
DA:263,0
DA:264,0
DA:265,0
DA:266,0
DA:267,0
DA:269,0
DA:271,0
DA:272,0
DA:273,0
DA:274,0
DA:275,0
DA:276,0
DA:277,0
DA:278,0
DA:279,0
DA:281,0
DA:282,0
DA:285,0
DA:286,0
DA:287,0
DA:288,0
DA:289,0
DA:290,0
DA:291,0
DA:293,0
DA:294,0
DA:296,0
DA:297,0
DA:298,0
DA:299,0
DA:301,0
DA:302,0
DA:304,0
LF:163
LH:112
end_of_record
TN:
SF:/home/eyalsoha/private/pcb2gcode/voronoi_visual_utils.hpp
FN:63,_ZN5boost7polygon20voronoi_visual_utilsIdE10discretizeIllNS0_10point_dataENS0_12segment_dataEEENS_9enable_ifINS0_7gtl_andINS0_6gtl_ifINS0_16is_point_conceptINS0_16geometry_conceptIT1_IT_EE4typeEE4typeEE4typeENS8_INS0_18is_segment_conceptINSA_IT2_IT0_EE4typeEE4typeEE4typeEE4typeEvE4typeERKSD_RKSN_dPSt6vectorIT1_IdESaIS14_EE
FN:180,_ZN5boost7polygon20voronoi_visual_utilsIdE4castIlEEdRKT_
FNDA:165634,_ZN5boost7polygon20voronoi_visual_utilsIdE10discretizeIllNS0_10point_dataENS0_12segment_dataEEENS_9enable_ifINS0_7gtl_andINS0_6gtl_ifINS0_16is_point_conceptINS0_16geometry_conceptIT1_IT_EE4typeEE4typeEE4typeENS8_INS0_18is_segment_conceptINSA_IT2_IT0_EE4typeEE4typeEE4typeEE4typeEvE4typeERKSD_RKSN_dPSt6vectorIT1_IdESaIS14_EE
FNDA:0,_ZN5boost7polygon20voronoi_visual_utilsIdE4castIlEEdRKT_
FNF:2
FNH:1
DA:63,165634
DA:71,496902
DA:72,331268
DA:73,165634
DA:77,165634
DA:78,331268
DA:79,165634
DA:80,496902
DA:85,165634
DA:86,331268
DA:87,165634
DA:88,165634
DA:91,331268
DA:92,165634
DA:95,165634
DA:96,165634
DA:97,165634
DA:98,331268
DA:101,165634
DA:102,654334
DA:103,323066
DA:104,646132
DA:108,323066
DA:109,646132
DA:113,646132
DA:114,323066
DA:115,646132
DA:116,323066
DA:117,323066
DA:119,244350
DA:120,488700
DA:121,488700
DA:122,488700
DA:123,244350
DA:124,244350
DA:125,244350
DA:126,244350
DA:128,78716
DA:133,496902
DA:134,165634
DA:139,488700
DA:169,1159438
DA:170,1325072
DA:171,993804
DA:172,993804
DA:173,331268
DA:175,331268
DA:176,331268
DA:180,0
DA:181,1482504
LF:50
LH:49
end_of_record
